TN:
SF:/usr/include/stdlib.h
FN:333,strtol
FN:402,atoi
FNDA:36,strtol
FNDA:36,atoi
FNF:2
FNH:2
DA:333,36
DA:336,36
DA:402,36
DA:404,36
LF:4
LH:4
end_of_record
SF:/usr/include/c++/4.1.2/bits/allocator.h
FN:97,_ZNSaIN8dicegame25LoadDiceGameConfiguration11StructDie_tEEC1Ev
FN:97,_ZNSaIcEC1Ev
FN:105,_ZNSaIN8dicegame25LoadDiceGameConfiguration11StructDie_tEED1Ev
FN:105,_ZNSaIcED1Ev
FNDA:17,_ZNSaIN8dicegame25LoadDiceGameConfiguration11StructDie_tEEC1Ev
FNDA:4,_ZNSaIcEC1Ev
FNDA:17,_ZNSaIN8dicegame25LoadDiceGameConfiguration11StructDie_tEED1Ev
FNDA:4,_ZNSaIcED1Ev
FNF:4
FNH:4
DA:97,238
DA:100,882
DA:105,2517
LF:3
LH:3
end_of_record
SF:/usr/include/c++/4.1.2/bits/basic_ios.h
FN:107,_ZNKSt9basic_iosIcSt11char_traitsIcEEcvPvEv
FN:124,_ZNSt9basic_iosIcSt11char_traitsIcEE8setstateESt12_Ios_Iostate
FN:268,_ZNSt9basic_iosIcSt11char_traitsIcEED2Ev
FN:444,_ZNSt9basic_iosIcSt11char_traitsIcEEC2Ev
FNDA:11,_ZNKSt9basic_iosIcSt11char_traitsIcEEcvPvEv
FNDA:0,_ZNSt9basic_iosIcSt11char_traitsIcEE8setstateESt12_Ios_Iostate
FNDA:11,_ZNSt9basic_iosIcSt11char_traitsIcEED2Ev
FNDA:11,_ZNSt9basic_iosIcSt11char_traitsIcEEC2Ev
FNF:4
FNH:3
DA:107,11
DA:108,144
DA:124,144
DA:143,0
DA:144,0
DA:188,144
DA:268,11
DA:444,11
DA:446,11
DA:447,11
LF:10
LH:8
end_of_record
SF:/usr/include/c++/4.1.2/bits/basic_string.h
FN:181,_ZNSs4_Rep10_M_disposeERKSaIcE
FN:187,_ZNSs7_M_leakEv
FN:255,_ZNSsD1Ev
FN:275,_ZNKSs16find_last_not_ofERKSsj
FN:275,_ZNKSs17find_first_not_ofERKSsj
FN:275,_ZNKSs5c_strEv
FN:275,_ZNKSs8_M_checkEjPKc
FN:275,_ZNSs5eraseEjj
FN:275,_ZNKSs7compareERKSs
FN:275,_ZNSs5clearEv
FN:275,_ZNKSs13find_first_ofERKSsj
FN:275,_ZNSs2atEj
FN:819,_ZNSs6appendEPKc
FN:912,_ZNSs6assignEPKc
FN:1692,_ZNKSs13find_first_ofEPKcj
FN:1906,_ZNKSs6substrEjj
FN:2104,_ZStplIcSt11char_traitsIcESaIcEESbIT_T0_T1_ERKS6_PKS3_
FN:2430,_ZSt7getlineIcSt11char_traitsIcESaIcEERSt13basic_istreamIT_T0_ES7_RSbIS4_S5_T1_E
FNDA:662,_ZNSs4_Rep10_M_disposeERKSaIcE
FNDA:16,_ZNSs7_M_leakEv
FNDA:291,_ZNKSs8_M_checkEjPKc
FNDA:662,_ZNSsD1Ev
FNDA:38,_ZNSs5clearEv
FNDA:16,_ZNSs2atEj
FNDA:1,_ZNSs6appendEPKc
FNDA:2,_ZNSs6assignEPKc
FNDA:89,_ZNSs5eraseEjj
FNDA:11,_ZNKSs5c_strEv
FNDA:169,_ZNKSs13find_first_ofERKSsj
FNDA:89,_ZNKSs13find_first_ofEPKcj
FNDA:258,_ZNKSs17find_first_not_ofERKSsj
FNDA:127,_ZNKSs16find_last_not_ofERKSsj
FNDA:202,_ZNKSs6substrEjj
FNDA:139,_ZNKSs7compareERKSs
FNDA:1,_ZStplIcSt11char_traitsIcESaIcEESbIT_T0_T1_ERKS6_PKS3_
FNDA:133,_ZSt7getlineIcSt11char_traitsIcESaIcEERSt13basic_istreamIT_T0_ES7_RSbIS4_S5_T1_E
FNF:18
FNH:18
DA:181,684
DA:182,684
DA:187,16
DA:213,22
DA:227,662
DA:230,662
DA:232,653
DA:233,331
DA:255,1324
DA:257,44
DA:275,3317
DA:283,2365
DA:296,16
DA:298,16
DA:299,16
DA:303,291
DA:305,291
DA:306,0
DA:307,291
DA:321,89
DA:322,178
DA:396,22
DA:477,662
DA:478,1986
DA:486,89
DA:494,2
DA:528,38
DA:547,138
DA:591,1658
DA:597,29
DA:663,38
DA:664,38
DA:671,38
DA:742,16
DA:744,16
DA:745,0
DA:746,16
DA:747,16
DA:819,1
DA:822,1
DA:912,2
DA:915,2
DA:1115,89
DA:1117,89
DA:1119,89
DA:1517,11
DA:1518,66
DA:1528,693
DA:1535,662
DA:1664,169
DA:1665,169
DA:1692,89
DA:1695,89
DA:1786,258
DA:1787,258
DA:1845,127
DA:1846,127
DA:1906,202
DA:1908,202
DA:1924,139
DA:1926,139
DA:1927,139
DA:1928,139
DA:1930,139
DA:1931,139
DA:1932,55
DA:1933,139
DA:2052,22
DA:2104,1
DA:2106,1
DA:2107,1
DA:2108,0
DA:2430,133
LF:73
LH:70
end_of_record
SF:/usr/include/c++/4.1.2/bits/char_traits.h
DA:253,139
DA:257,92
LF:2
LH:2
end_of_record
SF:/usr/include/c++/4.1.2/bits/ios_base.h
DA:124,11
DA:158,144
DA:162,144
LF:3
LH:3
end_of_record
SF:/usr/include/c++/4.1.2/bits/istream.tcc
DA:1258,133
LF:1
LH:1
end_of_record
SF:/usr/include/c++/4.1.2/bits/ostream.tcc
DA:72,13
LF:1
LH:1
end_of_record
SF:/usr/include/c++/4.1.2/bits/stl_algobase.h
FN:440,_ZNSt22__copy_backward_normalILb1ELb1EE8copy_b_nIN9__gnu_cxx17__normal_iteratorIPSsSt6vectorISsSaISsEEEES8_EET0_T_SA_S9_
FN:504,_ZSt13copy_backwardIN9__gnu_cxx17__normal_iteratorIPSsSt6vectorISsSaISsEEEES6_ET0_T_S8_S7_
FNDA:0,_ZNSt15__copy_backwardILb0ESt26random_access_iterator_tagE6copy_bIPSsS3_EET0_T_S5_S4_
FNDA:0,_ZNSt22__copy_backward_normalILb1ELb1EE8copy_b_nIN9__gnu_cxx17__normal_iteratorIPSsSt6vectorISsSaISsEEEES8_EET0_T_SA_S9_
FNDA:0,_ZSt13copy_backwardIN9__gnu_cxx17__normal_iteratorIPSsSt6vectorISsSaISsEEEES6_ET0_T_S8_S7_
FNF:3
FNH:0
DA:189,139
DA:190,54
DA:191,85
DA:408,0
DA:411,0
DA:412,0
DA:413,0
DA:440,0
DA:443,0
DA:480,0
DA:482,0
DA:504,0
DA:514,0
DA:515,0
DA:517,0
LF:15
LH:3
end_of_record
SF:/usr/include/c++/4.1.2/bits/stl_construct.h
FN:77,_ZSt10_ConstructISsSsEvPT_RKT0_
FN:107,_ZSt13__destroy_auxIN9__gnu_cxx17__normal_iteratorIPSsSt6vectorISsSaISsEEEEEvT_S7_12__false_type
FN:107,_ZSt13__destroy_auxIPSsEvT_S1_12__false_type
FN:148,_ZSt8_DestroyIPSsEvT_S1_
FN:148,_ZSt8_DestroyIN9__gnu_cxx17__normal_iteratorIPSsSt6vectorISsSaISsEEEEEvT_S7_
FNDA:13,_ZSt10_ConstructISsSsEvPT_RKT0_
FNDA:23,_ZSt13__destroy_auxIN9__gnu_cxx17__normal_iteratorIPSsSt6vectorISsSaISsEEEEEvT_S7_12__false_type
FNDA:67,_ZSt13__destroy_auxIPSsEvT_S1_12__false_type
FNDA:23,_ZSt8_DestroyIN9__gnu_cxx17__normal_iteratorIPSsSt6vectorISsSaISsEEEEEvT_S7_
FNDA:67,_ZSt8_DestroyIPSsEvT_S1_
FNF:5
FNH:5
DA:77,13
DA:81,47
DA:107,126
DA:119,90
DA:121,273
DA:122,90
DA:148,90
DA:155,107
DA:182,90
LF:9
LH:9
end_of_record
SF:/usr/include/c++/4.1.2/bits/stl_iterator.h
DA:650,804
DA:664,256
DA:673,124
DA:674,124
DA:704,166
DA:716,716
DA:738,76
DA:750,390
DA:809,158
LF:9
LH:9
end_of_record
SF:/usr/include/c++/4.1.2/bits/stl_uninitialized.h
FN:80,_ZSt24__uninitialized_copy_auxIN9__gnu_cxx17__normal_iteratorIPSsSt6vectorISsSaISsEEEES6_ET0_T_S8_S7_12__false_type
FN:108,_ZSt18uninitialized_copyIN9__gnu_cxx17__normal_iteratorIPSsSt6vectorISsSaISsEEEES6_ET0_T_S8_S7_
FN:188,_ZSt26__uninitialized_fill_n_auxIPN8dicegame25LoadDiceGameConfiguration11StructDie_tEjS2_EvT_T0_RKT1_12__false_type
FN:214,_ZSt20uninitialized_fill_nIPN8dicegame25LoadDiceGameConfiguration11StructDie_tEjS2_EvT_T0_RKT1_
FN:252,_ZSt22__uninitialized_copy_aIN9__gnu_cxx17__normal_iteratorIPSsSt6vectorISsSaISsEEEES6_SsET0_T_S8_S7_SaIT1_E
FN:308,_ZSt24__uninitialized_fill_n_aIPN8dicegame25LoadDiceGameConfiguration11StructDie_tEjS2_S2_EvT_T0_RKT1_SaIT2_E
FNDA:46,_ZSt24__uninitialized_copy_auxIN9__gnu_cxx17__normal_iteratorIPSsSt6vectorISsSaISsEEEES6_ET0_T_S8_S7_12__false_type
FNDA:46,_ZSt18uninitialized_copyIN9__gnu_cxx17__normal_iteratorIPSsSt6vectorISsSaISsEEEES6_ET0_T_S8_S7_
FNDA:17,_ZSt26__uninitialized_fill_n_auxIPN8dicegame25LoadDiceGameConfiguration11StructDie_tEjS2_EvT_T0_RKT1_12__false_type
FNDA:17,_ZSt20uninitialized_fill_nIPN8dicegame25LoadDiceGameConfiguration11StructDie_tEjS2_EvT_T0_RKT1_
FNDA:46,_ZSt22__uninitialized_copy_aIN9__gnu_cxx17__normal_iteratorIPSsSt6vectorISsSaISsEEEES6_SsET0_T_S8_S7_SaIT1_E
FNDA:17,_ZSt24__uninitialized_fill_n_aIPN8dicegame25LoadDiceGameConfiguration11StructDie_tEjS2_S2_EvT_T0_RKT1_SaIT2_E
FNF:6
FNH:6
DA:80,46
DA:82,46
DA:85,105
DA:86,13
DA:89,0
DA:91,0
DA:92,0
DA:108,46
DA:113,46
DA:188,17
DA:190,17
DA:193,51
DA:199,17
DA:214,17
DA:218,17
DA:252,46
DA:254,46
DA:308,17
DA:310,17
LF:19
LH:16
end_of_record
SF:/usr/include/c++/4.1.2/bits/stl_vector.h
FN:82,_ZNSt12_Vector_baseIN8dicegame25LoadDiceGameConfiguration11StructDie_tESaIS2_EED2Ev
FN:82,_ZNSt12_Vector_baseISsSaISsEED2Ev
FN:82,_ZNSt12_Vector_baseIN8dicegame25LoadDiceGameConfiguration11StructDie_tESaIS2_EEC2EjRKS3_
FN:96,_ZNSt6vectorISsSaISsEED1Ev
FN:96,_ZNSt6vectorIN8dicegame25LoadDiceGameConfiguration11StructDie_tESaIS2_EED1Ev
FN:96,_ZNSt6vectorISsSaISsEE5clearEv
FN:96,_ZNSt6vectorIN8dicegame25LoadDiceGameConfiguration11StructDie_tESaIS2_EEC1EjRKS2_RKS3_
FN:126,_ZNSt12_Vector_baseIN8dicegame25LoadDiceGameConfiguration11StructDie_tESaIS2_EE11_M_allocateEj
FN:126,_ZNSt12_Vector_baseISsSaISsEE11_M_allocateEj
FN:342,_ZNKSt6vectorISsSaISsEE4sizeEv
FN:351,_ZNSt6vectorISsSaISsEE9push_backERKSs
FNDA:17,_ZNSt12_Vector_baseIN8dicegame25LoadDiceGameConfiguration11StructDie_tESaIS2_EEC2EjRKS3_
FNDA:11,_ZNSt12_Vector_baseISsSaISsEED2Ev
FNDA:17,_ZNSt12_Vector_baseIN8dicegame25LoadDiceGameConfiguration11StructDie_tESaIS2_EED2Ev
FNDA:23,_ZNSt12_Vector_baseISsSaISsEE11_M_allocateEj
FNDA:17,_ZNSt12_Vector_baseIN8dicegame25LoadDiceGameConfiguration11StructDie_tESaIS2_EE11_M_allocateEj
FNDA:17,_ZNSt6vectorIN8dicegame25LoadDiceGameConfiguration11StructDie_tESaIS2_EEC1EjRKS2_RKS3_
FNDA:11,_ZNSt6vectorISsSaISsEED1Ev
FNDA:17,_ZNSt6vectorIN8dicegame25LoadDiceGameConfiguration11StructDie_tESaIS2_EED1Ev
FNDA:79,_ZNKSt6vectorISsSaISsEE4sizeEv
FNDA:113,_ZNSt6vectorISsSaISsEE9push_backERKSs
FNDA:56,_ZNSt6vectorISsSaISsEE5clearEv
FNF:11
FNH:11
DA:82,56
DA:87,56
DA:96,170
DA:107,11
DA:110,17
DA:111,17
DA:113,17
DA:114,17
DA:115,17
DA:118,28
DA:119,84
DA:126,40
DA:127,40
DA:132,51
DA:133,40
DA:203,11
DA:215,17
DA:216,17
DA:218,34
DA:220,17
DA:271,28
DA:272,84
DA:333,189
DA:342,79
DA:351,46
DA:360,79
DA:401,79
DA:402,237
DA:407,23
DA:480,664
DA:602,113
DA:604,113
DA:606,90
DA:607,90
DA:610,23
DA:748,56
DA:750,112
DA:752,56
LF:38
LH:38
end_of_record
SF:/usr/include/c++/4.1.2/bits/vector.tcc
FNDA:23,_ZNSt6vectorISsSaISsEE13_M_insert_auxEN9__gnu_cxx17__normal_iteratorIPSsS1_EERKSs
FNF:1
FNH:1
DA:249,23
DA:251,23
DA:253,0
DA:255,0
DA:256,0
DA:257,0
DA:260,0
DA:264,23
DA:265,23
DA:266,0
DA:271,23
DA:272,23
DA:273,0
DA:275,23
DA:276,23
DA:279,69
DA:284,23
DA:286,69
DA:292,0
DA:294,0
DA:295,0
DA:296,0
DA:298,92
DA:299,23
DA:302,23
DA:303,23
DA:304,23
LF:27
LH:16
end_of_record
SF:/usr/include/c++/4.1.2/ext/new_allocator.h
FN:83,_ZN9__gnu_cxx13new_allocatorIN8dicegame25LoadDiceGameConfiguration11StructDie_tEE8allocateEjPKv
FN:83,_ZN9__gnu_cxx13new_allocatorISsE8allocateEjPKv
FN:103,_ZN9__gnu_cxx13new_allocatorISsE9constructEPSsRKSs
FNDA:23,_ZN9__gnu_cxx13new_allocatorISsE8allocateEjPKv
FNDA:17,_ZN9__gnu_cxx13new_allocatorIN8dicegame25LoadDiceGameConfiguration11StructDie_tEE8allocateEjPKv
FNDA:113,_ZN9__gnu_cxx13new_allocatorISsE9constructEPSsRKSs
FNF:3
FNH:3
DA:72,1760
DA:83,40
DA:85,40
DA:86,0
DA:88,40
DA:94,40
DA:98,40
DA:103,113
DA:104,113
LF:9
LH:8
end_of_record
SF:/usr/include/c++/4.1.2/fstream
FN:239,_ZNSt13basic_filebufIcSt11char_traitsIcEED1Ev
FN:442,_ZNSt14basic_ifstreamIcSt11char_traitsIcEEC1EPKcSt13_Ios_Openmode
FN:455,_ZNSt14basic_ifstreamIcSt11char_traitsIcEED1Ev
FN:495,_ZNSt14basic_ifstreamIcSt11char_traitsIcEE4openEPKcSt13_Ios_Openmode
FN:512,_ZNSt14basic_ifstreamIcSt11char_traitsIcEE5closeEv
FNDA:11,_ZNSt13basic_filebufIcSt11char_traitsIcEED1Ev
FNDA:11,_ZNSt14basic_ifstreamIcSt11char_traitsIcEEC1EPKcSt13_Ios_Openmode
FNDA:11,_ZNSt14basic_ifstreamIcSt11char_traitsIcEED1Ev
FNDA:11,_ZNSt14basic_ifstreamIcSt11char_traitsIcEE4openEPKcSt13_Ios_Openmode
FNDA:11,_ZNSt14basic_ifstreamIcSt11char_traitsIcEE5closeEv
FNF:5
FNH:5
DA:239,11
DA:240,11
DA:442,11
DA:443,22
DA:445,11
DA:446,11
DA:455,11
DA:456,11
DA:495,11
DA:497,11
DA:498,0
DA:502,11
DA:512,11
DA:514,11
DA:515,0
LF:15
LH:13
end_of_record
SF:/usr/include/c++/4.1.2/iostream
FN:76,__tcf_0
FNDA:1,__tcf_0
FNF:1
FNH:1
DA:76,2
LF:1
LH:1
end_of_record
SF:/usr/include/c++/4.1.2/istream
FN:113,_ZNSiD2Ev
FNDA:11,_ZNSiD2Ev
FNF:1
FNH:1
DA:113,11
DA:114,11
DA:574,11
LF:3
LH:3
end_of_record
SF:/usr/include/c++/4.1.2/new
DA:94,160
LF:1
LH:1
end_of_record
SF:/usr/include/c++/4.1.2/streambuf
FN:199,_ZNSt15basic_streambufIcSt11char_traitsIcEED2Ev
FNDA:11,_ZNSt15basic_streambufIcSt11char_traitsIcEED2Ev
FNF:1
FNH:1
DA:199,11
DA:200,11
LF:2
LH:2
end_of_record
SF:/home/esutton/projects/dicegame/dicegame/src/main/loaddicegameconfiguration.cpp
FN:68,_Z41__static_initialization_and_destruction_0ii
FN:68,__tcf_1
FN:69,__tcf_2
FN:70,__tcf_3
FN:71,__tcf_4
FN:89,_ZN8dicegame25LoadDiceGameConfigurationC1Ev
FN:89,_ZN8dicegame25LoadDiceGameConfigurationC2Ev
FN:96,_ZN8dicegame25LoadDiceGameConfigurationD0Ev
FN:96,_ZN8dicegame25LoadDiceGameConfigurationD2Ev
FN:96,_ZN8dicegame25LoadDiceGameConfigurationD1Ev
FN:131,_ZNK8dicegame25LoadDiceGameConfiguration7isValidEv
FN:134,_ZNK8dicegame25LoadDiceGameConfiguration13numberOfRollsEv
FN:137,_ZNK8dicegame25LoadDiceGameConfiguration26dieConfigurationCollectionEv
FN:275,_ZN8dicegame25LoadDiceGameConfiguration4openERSs
FN:346,_ZN8dicegame25LoadDiceGameConfiguration5splitERSt6vectorISsSaISsEERKSsS6_
FN:380,_GLOBAL__I_LocaleStrings
FNDA:1,__tcf_1
FNDA:1,__tcf_2
FNDA:1,__tcf_3
FNDA:1,__tcf_4
FNDA:17,_ZN8dicegame25LoadDiceGameConfigurationC1Ev
FNDA:0,_ZN8dicegame25LoadDiceGameConfigurationC2Ev
FNDA:0,_ZN8dicegame25LoadDiceGameConfigurationD0Ev
FNDA:17,_ZN8dicegame25LoadDiceGameConfigurationD1Ev
FNDA:0,_ZN8dicegame25LoadDiceGameConfigurationD2Ev
FNDA:13,_ZN8dicegame25LoadDiceGameConfiguration7messageENS_10StatusCodeEiSs
FNDA:6,_ZNK8dicegame25LoadDiceGameConfiguration7isValidEv
FNDA:231,_ZNK8dicegame25LoadDiceGameConfiguration13numberOfRollsEv
FNDA:19,_ZNK8dicegame25LoadDiceGameConfiguration26dieConfigurationCollectionEv
FNDA:11,_ZN8dicegame25LoadDiceGameConfiguration5parseERSt14basic_ifstreamIcSt11char_traitsIcEE
FNDA:16,_ZN8dicegame25LoadDiceGameConfiguration4openERSs
FNDA:19,_ZN8dicegame25LoadDiceGameConfiguration10fileExistsERSs
FNDA:127,_ZN8dicegame25LoadDiceGameConfiguration4trimERSs
FNDA:56,_ZN8dicegame25LoadDiceGameConfiguration5splitERSt6vectorISsSaISsEERKSsS6_
FNDA:38,_ZN8dicegame25LoadDiceGameConfiguration9isNumericERKSs
FNDA:1,_Z41__static_initialization_and_destruction_0ii
FNDA:1,_GLOBAL__I_LocaleStrings
FNF:21
FNH:18
DA:68,2
DA:69,2
DA:70,2
DA:71,2
DA:89,17
DA:92,17
DA:94,17
DA:96,17
DA:98,17
DA:102,13
DA:104,13
DA:106,0
DA:110,13
DA:111,13
DA:113,13
DA:117,13
DA:119,5
DA:122,13
DA:124,13
DA:127,13
DA:131,6
DA:134,231
DA:137,19
DA:141,11
DA:143,11
DA:144,11
DA:148,11
DA:149,144
DA:151,127
DA:152,127
DA:153,127
DA:156,38
DA:159,89
DA:160,89
DA:163,33
DA:167,56
DA:168,56
DA:171,1
DA:174,55
DA:175,55
DA:176,55
DA:178,11
DA:180,0
DA:182,11
DA:184,44
DA:186,17
DA:189,1
DA:192,16
DA:193,16
DA:194,16
DA:196,16
DA:197,32
DA:199,1
DA:201,30
DA:203,27
DA:205,14
DA:207,1
DA:209,13
DA:212,0
DA:215,13
DA:216,13
DA:219,0
DA:221,26
DA:223,13
DA:225,13
DA:227,1
DA:229,12
DA:232,0
DA:235,12
DA:236,12
DA:239,0
DA:241,24
DA:245,6
DA:248,1
DA:249,1
DA:252,5
DA:254,1
DA:255,1
DA:256,1
DA:259,4
DA:261,1
DA:262,1
DA:263,1
DA:266,3
DA:267,3
DA:275,16
DA:277,16
DA:279,16
DA:281,5
DA:284,11
DA:285,11
DA:287,11
DA:290,11
DA:291,11
DA:293,11
DA:294,11
DA:301,19
DA:303,19
DA:304,19
DA:306,13
DA:307,13
DA:309,6
DA:317,127
DA:320,127
DA:321,127
DA:322,127
DA:325,38
DA:326,38
DA:328,89
DA:331,89
DA:332,89
DA:337,178
DA:346,56
DA:348,56
DA:350,56
DA:352,56
DA:354,225
DA:357,113
DA:359,113
DA:361,113
DA:363,56
DA:366,38
DA:368,38
DA:370,0
DA:373,38
DA:374,302
DA:378,76
DA:379,2
DA:380,1
LF:129
LH:122
end_of_record
SF:/home/esutton/projects/dicegame/dicegame/src/main/loaddicegameconfiguration.hpp
FN:35,_ZN8dicegame25LoadDiceGameConfiguration11StructDie_tC1Ei
FNDA:17,_ZN8dicegame25LoadDiceGameConfiguration11StructDie_tC1Ei
FNF:1
FNH:1
DA:34,34
DA:35,17
DA:38,33
DA:40,17
LF:4
LH:4
end_of_record
TN:
SF:/usr/include/c++/4.1.2/bits/allocator.h
FN:97,_ZNSaIcEC1Ev
FN:105,_ZNSaIcED1Ev
FNDA:2,_ZNSaIcEC1Ev
FNDA:2,_ZNSaIcED1Ev
FNF:2
FNH:2
DA:97,2
DA:100,2
DA:105,10
LF:3
LH:3
end_of_record
SF:/usr/include/c++/4.1.2/bits/basic_string.h
FN:181,_ZNSs4_Rep10_M_disposeERKSaIcE
FN:255,_ZNSsD1Ev
FNDA:2,_ZNSs4_Rep10_M_disposeERKSaIcE
FNDA:2,_ZNSsD1Ev
FNF:2
FNH:2
DA:181,2
DA:182,2
DA:227,2
DA:230,2
DA:232,2
DA:233,2
DA:255,4
DA:275,2
DA:283,2
DA:477,2
DA:478,6
DA:1535,2
LF:12
LH:12
end_of_record
SF:/usr/include/c++/4.1.2/ext/new_allocator.h
DA:72,6
LF:1
LH:1
end_of_record
SF:/home/esutton/projects/dicegame/cpputest/include/CppUTest/Utest.h
FN:63,_ZN20NormalTestTerminatorC1Ev
FNDA:2,_ZN20NormalTestTerminatorC1Ev
FNF:1
FNH:1
DA:63,2
DA:70,4
LF:2
LH:2
end_of_record
SF:/home/esutton/projects/dicegame/dicegame/src/main/loadeddicegame.hpp
FN:18,_ZN8dicegame14LoadedDiceGameD0Ev
FN:18,_ZN8dicegame14LoadedDiceGameD1Ev
FNDA:0,_ZN8dicegame14LoadedDiceGameD0Ev
FNDA:2,_ZN8dicegame14LoadedDiceGameD1Ev
FNF:2
FNH:1
DA:18,2
LF:1
LH:1
end_of_record
SF:/home/esutton/projects/dicegame/dicegame/src/test/loadeddicegame_test.cpp
FN:18,_ZN38TEST_GROUP_CppUTestGroupLoadedDiceGameD2Ev
FN:18,_ZN38TEST_GROUP_CppUTestGroupLoadedDiceGameD1Ev
FN:18,_ZN38TEST_GROUP_CppUTestGroupLoadedDiceGameC2Ev
FN:18,_ZN38TEST_GROUP_CppUTestGroupLoadedDiceGameD0Ev
FN:22,_Z41__static_initialization_and_destruction_0ii
FN:22,_ZN43TEST_LoadedDiceGame_ConfigFileNotFound_TestD1Ev
FN:22,_ZN48TEST_LoadedDiceGame_ConfigFileNotFound_TestShellC1Ev
FN:22,__tcf_1
FN:22,__tcf_0
FN:22,_ZN43TEST_LoadedDiceGame_ConfigFileNotFound_TestC1Ev
FN:22,_ZN48TEST_LoadedDiceGame_ConfigFileNotFound_TestShell10createTestEv
FN:22,_ZN48TEST_LoadedDiceGame_ConfigFileNotFound_TestShellD0Ev
FN:22,_ZN43TEST_LoadedDiceGame_ConfigFileNotFound_Test8testBodyEv
FN:22,_ZN43TEST_LoadedDiceGame_ConfigFileNotFound_TestD0Ev
FN:22,_ZN48TEST_LoadedDiceGame_ConfigFileNotFound_TestShellD1Ev
FN:44,_ZN41TEST_LoadedDiceGame_ValidConfig_TestShellC1Ev
FN:44,__tcf_2
FN:44,__tcf_3
FN:44,_ZN36TEST_LoadedDiceGame_ValidConfig_TestC1Ev
FN:44,_ZN36TEST_LoadedDiceGame_ValidConfig_Test8testBodyEv
FN:44,_ZN36TEST_LoadedDiceGame_ValidConfig_TestD0Ev
FN:44,_ZN36TEST_LoadedDiceGame_ValidConfig_TestD1Ev
FN:44,_ZN41TEST_LoadedDiceGame_ValidConfig_TestShellD1Ev
FN:44,_ZN41TEST_LoadedDiceGame_ValidConfig_TestShell10createTestEv
FN:44,_ZN41TEST_LoadedDiceGame_ValidConfig_TestShellD0Ev
FN:53,_GLOBAL__I_externTestGroupLoadedDiceGame
FNDA:0,_ZN38TEST_GROUP_CppUTestGroupLoadedDiceGameD0Ev
FNDA:0,_ZN38TEST_GROUP_CppUTestGroupLoadedDiceGameD1Ev
FNDA:2,_ZN38TEST_GROUP_CppUTestGroupLoadedDiceGameD2Ev
FNDA:2,_ZN38TEST_GROUP_CppUTestGroupLoadedDiceGameC2Ev
FNDA:1,_ZN43TEST_LoadedDiceGame_ConfigFileNotFound_TestD0Ev
FNDA:0,_ZN43TEST_LoadedDiceGame_ConfigFileNotFound_TestD1Ev
FNDA:1,_ZN48TEST_LoadedDiceGame_ConfigFileNotFound_TestShellC1Ev
FNDA:1,__tcf_1
FNDA:1,__tcf_0
FNDA:1,_ZN48TEST_LoadedDiceGame_ConfigFileNotFound_TestShellD1Ev
FNDA:1,_ZN43TEST_LoadedDiceGame_ConfigFileNotFound_Test8testBodyEv
FNDA:1,_ZN48TEST_LoadedDiceGame_ConfigFileNotFound_TestShell10createTestEv
FNDA:1,_ZN43TEST_LoadedDiceGame_ConfigFileNotFound_TestC1Ev
FNDA:1,_ZN36TEST_LoadedDiceGame_ValidConfig_TestD0Ev
FNDA:0,_ZN36TEST_LoadedDiceGame_ValidConfig_TestD1Ev
FNDA:1,_ZN41TEST_LoadedDiceGame_ValidConfig_TestShellC1Ev
FNDA:1,__tcf_3
FNDA:1,__tcf_2
FNDA:1,_ZN41TEST_LoadedDiceGame_ValidConfig_TestShellD1Ev
FNDA:1,_ZN36TEST_LoadedDiceGame_ValidConfig_Test8testBodyEv
FNDA:1,_ZN41TEST_LoadedDiceGame_ValidConfig_TestShell10createTestEv
FNDA:1,_ZN36TEST_LoadedDiceGame_ValidConfig_TestC1Ev
FNDA:0,_ZN41TEST_LoadedDiceGame_ValidConfig_TestShellD0Ev
FNDA:0,_ZN48TEST_LoadedDiceGame_ConfigFileNotFound_TestShellD0Ev
FNDA:1,_Z41__static_initialization_and_destruction_0ii
FNDA:1,_GLOBAL__I_externTestGroupLoadedDiceGame
FNF:26
FNH:20
DA:18,4
DA:22,9
DA:26,1
DA:27,1
DA:28,1
DA:29,1
DA:30,1
DA:44,9
DA:48,1
DA:49,1
DA:50,1
DA:51,1
DA:52,3
DA:53,1
LF:14
LH:14
end_of_record
TN:
SF:/home/esutton/projects/dicegame/cpputest/include/CppUTest/Utest.h
FN:63,_ZN20NormalTestTerminatorC1Ev
FNDA:600000,_ZN20NormalTestTerminatorC1Ev
FNF:1
FNH:1
DA:63,2400055
DA:70,4800110
LF:2
LH:2
end_of_record
SF:/home/esutton/projects/dicegame/dicegame/src/test/loadeddie_test.cpp
FN:19,_ZN33TEST_GROUP_CppUTestGroupLoadedDieD1Ev
FN:19,_ZN33TEST_GROUP_CppUTestGroupLoadedDieD2Ev
FN:19,_ZN33TEST_GROUP_CppUTestGroupLoadedDieD0Ev
FN:19,_ZN33TEST_GROUP_CppUTestGroupLoadedDieC2Ev
FN:21,_ZN33TEST_GROUP_CppUTestGroupLoadedDie20assertValidFaceValueEj
FN:28,_ZN33TEST_GROUP_CppUTestGroupLoadedDie41checkForExpectedLoadedDieRollDistributionEjjj
FN:93,_Z41__static_initialization_and_destruction_0ii
FN:93,__tcf_1
FN:93,_ZN59TEST_LoadedDie_ReturnsValueProvidedAtConstruction_TestShellD0Ev
FN:93,__tcf_0
FN:93,_ZN59TEST_LoadedDie_ReturnsValueProvidedAtConstruction_TestShell10createTestEv
FN:93,_ZN54TEST_LoadedDie_ReturnsValueProvidedAtConstruction_Test8testBodyEv
FN:93,_ZN54TEST_LoadedDie_ReturnsValueProvidedAtConstruction_TestD1Ev
FN:93,_ZN54TEST_LoadedDie_ReturnsValueProvidedAtConstruction_TestD0Ev
FN:93,_ZN54TEST_LoadedDie_ReturnsValueProvidedAtConstruction_TestC1Ev
FN:93,_ZN59TEST_LoadedDie_ReturnsValueProvidedAtConstruction_TestShellC1Ev
FN:93,_ZN59TEST_LoadedDie_ReturnsValueProvidedAtConstruction_TestShellD1Ev
FN:108,_ZN53TEST_LoadedDie_RollDistributionIsReasonable_TestShell10createTestEv
FN:108,_ZN53TEST_LoadedDie_RollDistributionIsReasonable_TestShellD0Ev
FN:108,__tcf_2
FN:108,_ZN53TEST_LoadedDie_RollDistributionIsReasonable_TestShellD1Ev
FN:108,__tcf_3
FN:108,_ZN48TEST_LoadedDie_RollDistributionIsReasonable_Test8testBodyEv
FN:108,_ZN48TEST_LoadedDie_RollDistributionIsReasonable_TestD1Ev
FN:108,_ZN48TEST_LoadedDie_RollDistributionIsReasonable_TestC1Ev
FN:108,_ZN48TEST_LoadedDie_RollDistributionIsReasonable_TestD0Ev
FN:108,_ZN53TEST_LoadedDie_RollDistributionIsReasonable_TestShellC1Ev
FN:130,_GLOBAL__I_externTestGroupLoadedDie
FNDA:0,_ZN33TEST_GROUP_CppUTestGroupLoadedDieD0Ev
FNDA:0,_ZN33TEST_GROUP_CppUTestGroupLoadedDieD1Ev
FNDA:2,_ZN33TEST_GROUP_CppUTestGroupLoadedDieD2Ev
FNDA:2,_ZN33TEST_GROUP_CppUTestGroupLoadedDieC2Ev
FNDA:900000,_ZN33TEST_GROUP_CppUTestGroupLoadedDie20assertValidFaceValueEj
FNDA:9,_ZN33TEST_GROUP_CppUTestGroupLoadedDie41checkForExpectedLoadedDieRollDistributionEjjj
FNDA:1,_ZN54TEST_LoadedDie_ReturnsValueProvidedAtConstruction_TestD0Ev
FNDA:0,_ZN54TEST_LoadedDie_ReturnsValueProvidedAtConstruction_TestD1Ev
FNDA:1,_ZN59TEST_LoadedDie_ReturnsValueProvidedAtConstruction_TestShellC1Ev
FNDA:1,__tcf_1
FNDA:1,__tcf_0
FNDA:1,_ZN59TEST_LoadedDie_ReturnsValueProvidedAtConstruction_TestShellD1Ev
FNDA:1,_ZN54TEST_LoadedDie_ReturnsValueProvidedAtConstruction_Test8testBodyEv
FNDA:1,_ZN59TEST_LoadedDie_ReturnsValueProvidedAtConstruction_TestShell10createTestEv
FNDA:1,_ZN54TEST_LoadedDie_ReturnsValueProvidedAtConstruction_TestC1Ev
FNDA:1,_ZN48TEST_LoadedDie_RollDistributionIsReasonable_TestD0Ev
FNDA:0,_ZN48TEST_LoadedDie_RollDistributionIsReasonable_TestD1Ev
FNDA:1,_ZN53TEST_LoadedDie_RollDistributionIsReasonable_TestShellC1Ev
FNDA:1,__tcf_3
FNDA:1,__tcf_2
FNDA:1,_ZN53TEST_LoadedDie_RollDistributionIsReasonable_TestShellD1Ev
FNDA:1,_ZN48TEST_LoadedDie_RollDistributionIsReasonable_Test8testBodyEv
FNDA:1,_ZN53TEST_LoadedDie_RollDistributionIsReasonable_TestShell10createTestEv
FNDA:1,_ZN48TEST_LoadedDie_RollDistributionIsReasonable_TestC1Ev
FNDA:0,_ZN53TEST_LoadedDie_RollDistributionIsReasonable_TestShellD0Ev
FNDA:0,_ZN59TEST_LoadedDie_ReturnsValueProvidedAtConstruction_TestShellD0Ev
FNDA:1,_Z41__static_initialization_and_destruction_0ii
FNDA:1,_GLOBAL__I_externTestGroupLoadedDie
FNF:28
FNH:22
DA:19,4
DA:21,900000
DA:23,1800000
DA:24,1800000
DA:25,900000
DA:28,9
DA:30,18
DA:32,9
DA:33,900009
DA:35,900000
DA:36,900000
DA:40,9
DA:41,63
DA:43,54
DA:45,18
DA:49,9
DA:51,2
DA:52,2
DA:56,9
DA:58,2
DA:59,2
DA:63,8
DA:65,2
DA:71,7
DA:72,49
DA:74,42
DA:76,7
DA:80,35
DA:81,35
DA:83,35
DA:86,35
DA:87,70
DA:88,7
DA:93,9
DA:95,100001
DA:97,100000
DA:99,600000
DA:100,600000
DA:101,600000
DA:105,1
DA:108,9
DA:111,1
DA:114,1
DA:116,1
DA:117,1
DA:119,1
DA:120,1
DA:122,1
DA:123,1
DA:126,1
DA:127,1
DA:128,0
DA:129,3
DA:130,1
LF:54
LH:53
end_of_record
TN:
SF:/usr/include/c++/4.1.2/bits/allocator.h
FN:97,_ZNSaIcEC1Ev
FN:105,_ZNSaIcED1Ev
FNDA:14,_ZNSaIcEC1Ev
FNDA:14,_ZNSaIcED1Ev
FNF:2
FNH:2
DA:97,14
DA:100,14
DA:105,70
LF:3
LH:3
end_of_record
SF:/usr/include/c++/4.1.2/bits/basic_string.h
FN:181,_ZNSs4_Rep10_M_disposeERKSaIcE
FN:255,_ZNSsD1Ev
FNDA:14,_ZNSs4_Rep10_M_disposeERKSaIcE
FNDA:14,_ZNSsD1Ev
FNF:2
FNH:2
DA:181,14
DA:182,14
DA:227,14
DA:230,14
DA:232,14
DA:233,14
DA:255,28
DA:275,14
DA:283,14
DA:477,14
DA:478,42
DA:1535,14
LF:12
LH:12
end_of_record
SF:/usr/include/c++/4.1.2/bits/stl_iterator.h
DA:650,18
DA:664,4
DA:704,4
DA:716,10
DA:809,10
LF:5
LH:5
end_of_record
SF:/usr/include/c++/4.1.2/bits/stl_vector.h
FN:342,_ZNKSt6vectorIN8dicegame25LoadDiceGameConfiguration11StructDie_tESaIS2_EE2atEj
FN:342,_ZNKSt6vectorIN8dicegame25LoadDiceGameConfiguration11StructDie_tESaIS2_EE4sizeEv
FN:500,_ZNKSt6vectorIN8dicegame25LoadDiceGameConfiguration11StructDie_tESaIS2_EE14_M_range_checkEj
FNDA:5,_ZNKSt6vectorIN8dicegame25LoadDiceGameConfiguration11StructDie_tESaIS2_EE4sizeEv
FNDA:4,_ZNKSt6vectorIN8dicegame25LoadDiceGameConfiguration11StructDie_tESaIS2_EE14_M_range_checkEj
FNDA:4,_ZNKSt6vectorIN8dicegame25LoadDiceGameConfiguration11StructDie_tESaIS2_EE2atEj
FNF:3
FNH:3
DA:342,9
DA:360,5
DA:401,5
DA:402,15
DA:495,16
DA:500,4
DA:502,4
DA:503,0
DA:537,4
DA:539,4
DA:540,4
LF:11
LH:10
end_of_record
SF:/usr/include/c++/4.1.2/ext/new_allocator.h
DA:72,42
LF:1
LH:1
end_of_record
SF:/home/esutton/projects/dicegame/cpputest/include/CppUTest/Utest.h
FN:63,_ZN20NormalTestTerminatorC1Ev
FNDA:22,_ZN20NormalTestTerminatorC1Ev
FNF:1
FNH:1
DA:63,22
DA:70,44
LF:2
LH:2
end_of_record
SF:/home/esutton/projects/dicegame/dicegame/src/test/loaddicegameconfiguration_test.cpp
FN:23,_ZN49TEST_GROUP_CppUTestGroupLoadDiceGameConfigurationD1Ev
FN:23,_ZN49TEST_GROUP_CppUTestGroupLoadDiceGameConfigurationD0Ev
FN:23,_ZN49TEST_GROUP_CppUTestGroupLoadDiceGameConfigurationC2Ev
FN:23,_ZN49TEST_GROUP_CppUTestGroupLoadDiceGameConfigurationD2Ev
FN:27,_ZN66TEST_LoadDiceGameConfiguration_NoConfigurationIsNotValid_TestShellC1Ev
FN:27,_ZN61TEST_LoadDiceGameConfiguration_NoConfigurationIsNotValid_TestC1Ev
FN:27,_ZN66TEST_LoadDiceGameConfiguration_NoConfigurationIsNotValid_TestShellD0Ev
FN:27,_Z41__static_initialization_and_destruction_0ii
FN:27,_ZN66TEST_LoadDiceGameConfiguration_NoConfigurationIsNotValid_TestShell10createTestEv
FN:27,_ZN61TEST_LoadDiceGameConfiguration_NoConfigurationIsNotValid_TestD0Ev
FN:27,__tcf_1
FN:27,_ZN66TEST_LoadDiceGameConfiguration_NoConfigurationIsNotValid_TestShellD1Ev
FN:27,_ZN61TEST_LoadDiceGameConfiguration_NoConfigurationIsNotValid_Test8testBodyEv
FN:27,__tcf_0
FN:27,_ZN61TEST_LoadDiceGameConfiguration_NoConfigurationIsNotValid_TestD1Ev
FN:34,_ZN71TEST_LoadDiceGameConfiguration_MissingConfigurationIsNotValid_TestShellD0Ev
FN:34,_ZN71TEST_LoadDiceGameConfiguration_MissingConfigurationIsNotValid_TestShellC1Ev
FN:34,_ZN66TEST_LoadDiceGameConfiguration_MissingConfigurationIsNotValid_TestC1Ev
FN:34,_ZN71TEST_LoadDiceGameConfiguration_MissingConfigurationIsNotValid_TestShell10createTestEv
FN:34,__tcf_3
FN:34,_ZN66TEST_LoadDiceGameConfiguration_MissingConfigurationIsNotValid_Test8testBodyEv
FN:34,_ZN66TEST_LoadDiceGameConfiguration_MissingConfigurationIsNotValid_TestD0Ev
FN:34,_ZN66TEST_LoadDiceGameConfiguration_MissingConfigurationIsNotValid_TestD1Ev
FN:34,__tcf_2
FN:34,_ZN71TEST_LoadDiceGameConfiguration_MissingConfigurationIsNotValid_TestShellD1Ev
FN:54,_ZN59TEST_LoadDiceGameConfiguration_LoadDiceGameConfig_TestShellD1Ev
FN:54,_ZN59TEST_LoadDiceGameConfiguration_LoadDiceGameConfig_TestShell10createTestEv
FN:54,__tcf_5
FN:54,_ZN59TEST_LoadDiceGameConfiguration_LoadDiceGameConfig_TestShellD0Ev
FN:54,_ZN54TEST_LoadDiceGameConfiguration_LoadDiceGameConfig_Test8testBodyEv
FN:54,_ZN59TEST_LoadDiceGameConfiguration_LoadDiceGameConfig_TestShellC1Ev
FN:54,__tcf_4
FN:54,_ZN54TEST_LoadDiceGameConfiguration_LoadDiceGameConfig_TestD0Ev
FN:54,_ZN54TEST_LoadDiceGameConfiguration_LoadDiceGameConfig_TestD1Ev
FN:54,_ZN54TEST_LoadDiceGameConfiguration_LoadDiceGameConfig_TestC1Ev
FN:72,_ZN56TEST_LoadDiceGameConfiguration_InvalidNumRolls_TestShellD1Ev
FN:72,_ZN51TEST_LoadDiceGameConfiguration_InvalidNumRolls_TestD0Ev
FN:72,__tcf_7
FN:72,_ZN56TEST_LoadDiceGameConfiguration_InvalidNumRolls_TestShellD0Ev
FN:72,_ZN56TEST_LoadDiceGameConfiguration_InvalidNumRolls_TestShell10createTestEv
FN:72,_ZN56TEST_LoadDiceGameConfiguration_InvalidNumRolls_TestShellC1Ev
FN:72,__tcf_6
FN:72,_ZN51TEST_LoadDiceGameConfiguration_InvalidNumRolls_TestC1Ev
FN:72,_ZN51TEST_LoadDiceGameConfiguration_InvalidNumRolls_TestD1Ev
FN:72,_ZN51TEST_LoadDiceGameConfiguration_InvalidNumRolls_Test8testBodyEv
FN:81,_ZN61TEST_LoadDiceGameConfiguration_InvalidNumRollsNotNumeric_TestD0Ev
FN:81,__tcf_8
FN:81,_ZN61TEST_LoadDiceGameConfiguration_InvalidNumRollsNotNumeric_Test8testBodyEv
FN:81,_ZN66TEST_LoadDiceGameConfiguration_InvalidNumRollsNotNumeric_TestShellC1Ev
FN:81,_ZN66TEST_LoadDiceGameConfiguration_InvalidNumRollsNotNumeric_TestShellD0Ev
FN:81,_ZN66TEST_LoadDiceGameConfiguration_InvalidNumRollsNotNumeric_TestShell10createTestEv
FN:81,__tcf_9
FN:81,_ZN61TEST_LoadDiceGameConfiguration_InvalidNumRollsNotNumeric_TestD1Ev
FN:81,_ZN61TEST_LoadDiceGameConfiguration_InvalidNumRollsNotNumeric_TestC1Ev
FN:81,_ZN66TEST_LoadDiceGameConfiguration_InvalidNumRollsNotNumeric_TestShellD1Ev
FN:90,_ZN61TEST_LoadDiceGameConfiguration_InvalidDiceCountZero_TestShellC1Ev
FN:90,_ZN56TEST_LoadDiceGameConfiguration_InvalidDiceCountZero_TestD1Ev
FN:90,_ZN56TEST_LoadDiceGameConfiguration_InvalidDiceCountZero_Test8testBodyEv
FN:90,_ZN56TEST_LoadDiceGameConfiguration_InvalidDiceCountZero_TestC1Ev
FN:90,__tcf_10
FN:90,_ZN61TEST_LoadDiceGameConfiguration_InvalidDiceCountZero_TestShell10createTestEv
FN:90,_ZN61TEST_LoadDiceGameConfiguration_InvalidDiceCountZero_TestShellD0Ev
FN:90,_ZN61TEST_LoadDiceGameConfiguration_InvalidDiceCountZero_TestShellD1Ev
FN:90,_ZN56TEST_LoadDiceGameConfiguration_InvalidDiceCountZero_TestD0Ev
FN:90,__tcf_11
FN:99,_ZN60TEST_LoadDiceGameConfiguration_InvalidDuplicatDie1_TestShellD1Ev
FN:99,_ZN55TEST_LoadDiceGameConfiguration_InvalidDuplicatDie1_TestD1Ev
FN:99,__tcf_13
FN:99,_ZN60TEST_LoadDiceGameConfiguration_InvalidDuplicatDie1_TestShellC1Ev
FN:99,_ZN60TEST_LoadDiceGameConfiguration_InvalidDuplicatDie1_TestShellD0Ev
FN:99,_ZN55TEST_LoadDiceGameConfiguration_InvalidDuplicatDie1_TestC1Ev
FN:99,_ZN55TEST_LoadDiceGameConfiguration_InvalidDuplicatDie1_Test8testBodyEv
FN:99,_ZN55TEST_LoadDiceGameConfiguration_InvalidDuplicatDie1_TestD0Ev
FN:99,__tcf_12
FN:99,_ZN60TEST_LoadDiceGameConfiguration_InvalidDuplicatDie1_TestShell10createTestEv
FN:108,_ZN64TEST_LoadDiceGameConfiguration_InvalidDiceCountGreaterThan2_Test8testBodyEv
FN:108,_ZN64TEST_LoadDiceGameConfiguration_InvalidDiceCountGreaterThan2_TestC1Ev
FN:108,_ZN69TEST_LoadDiceGameConfiguration_InvalidDiceCountGreaterThan2_TestShellD0Ev
FN:108,_ZN64TEST_LoadDiceGameConfiguration_InvalidDiceCountGreaterThan2_TestD0Ev
FN:108,_ZN69TEST_LoadDiceGameConfiguration_InvalidDiceCountGreaterThan2_TestShellC1Ev
FN:108,_ZN64TEST_LoadDiceGameConfiguration_InvalidDiceCountGreaterThan2_TestD1Ev
FN:108,_ZN69TEST_LoadDiceGameConfiguration_InvalidDiceCountGreaterThan2_TestShellD1Ev
FN:108,__tcf_15
FN:108,__tcf_14
FN:108,_ZN69TEST_LoadDiceGameConfiguration_InvalidDiceCountGreaterThan2_TestShell10createTestEv
FN:117,_ZN66TEST_LoadDiceGameConfiguration_InvalidDiceCountLessThan2_TestShellD0Ev
FN:117,_ZN61TEST_LoadDiceGameConfiguration_InvalidDiceCountLessThan2_TestD1Ev
FN:117,_ZN66TEST_LoadDiceGameConfiguration_InvalidDiceCountLessThan2_TestShellD1Ev
FN:117,__tcf_16
FN:117,_ZN61TEST_LoadDiceGameConfiguration_InvalidDiceCountLessThan2_TestC1Ev
FN:117,_ZN66TEST_LoadDiceGameConfiguration_InvalidDiceCountLessThan2_TestShellC1Ev
FN:117,_ZN61TEST_LoadDiceGameConfiguration_InvalidDiceCountLessThan2_TestD0Ev
FN:117,_ZN61TEST_LoadDiceGameConfiguration_InvalidDiceCountLessThan2_Test8testBodyEv
FN:117,_ZN66TEST_LoadDiceGameConfiguration_InvalidDiceCountLessThan2_TestShell10createTestEv
FN:117,__tcf_17
FN:126,_ZN68TEST_LoadDiceGameConfiguration_InvalidLoadedSideNotNumeric_TestShellD0Ev
FN:126,_ZN68TEST_LoadDiceGameConfiguration_InvalidLoadedSideNotNumeric_TestShellD1Ev
FN:126,_ZN63TEST_LoadDiceGameConfiguration_InvalidLoadedSideNotNumeric_TestD1Ev
FN:126,__tcf_18
FN:126,_ZN63TEST_LoadDiceGameConfiguration_InvalidLoadedSideNotNumeric_TestD0Ev
FN:126,_ZN63TEST_LoadDiceGameConfiguration_InvalidLoadedSideNotNumeric_Test8testBodyEv
FN:126,__tcf_19
FN:126,_ZN68TEST_LoadDiceGameConfiguration_InvalidLoadedSideNotNumeric_TestShellC1Ev
FN:126,_ZN68TEST_LoadDiceGameConfiguration_InvalidLoadedSideNotNumeric_TestShell10createTestEv
FN:126,_ZN63TEST_LoadDiceGameConfiguration_InvalidLoadedSideNotNumeric_TestC1Ev
FN:134,__tcf_20
FN:134,_ZN63TEST_LoadDiceGameConfiguration_InvalidLoadAmountNotNumeric_Test8testBodyEv
FN:134,_ZN63TEST_LoadDiceGameConfiguration_InvalidLoadAmountNotNumeric_TestC1Ev
FN:134,__tcf_21
FN:134,_ZN68TEST_LoadDiceGameConfiguration_InvalidLoadAmountNotNumeric_TestShellD1Ev
FN:134,_ZN63TEST_LoadDiceGameConfiguration_InvalidLoadAmountNotNumeric_TestD0Ev
FN:134,_ZN68TEST_LoadDiceGameConfiguration_InvalidLoadAmountNotNumeric_TestShell10createTestEv
FN:134,_ZN63TEST_LoadDiceGameConfiguration_InvalidLoadAmountNotNumeric_TestD1Ev
FN:134,_ZN68TEST_LoadDiceGameConfiguration_InvalidLoadAmountNotNumeric_TestShellD0Ev
FN:134,_ZN68TEST_LoadDiceGameConfiguration_InvalidLoadAmountNotNumeric_TestShellC1Ev
FN:143,_ZN65TEST_LoadDiceGameConfiguration_InvalidTooManyEqualSigns_TestShell10createTestEv
FN:143,_ZN60TEST_LoadDiceGameConfiguration_InvalidTooManyEqualSigns_Test8testBodyEv
FN:143,_ZN60TEST_LoadDiceGameConfiguration_InvalidTooManyEqualSigns_TestD0Ev
FN:143,_ZN65TEST_LoadDiceGameConfiguration_InvalidTooManyEqualSigns_TestShellD0Ev
FN:143,_ZN60TEST_LoadDiceGameConfiguration_InvalidTooManyEqualSigns_TestC1Ev
FN:143,__tcf_23
FN:143,_ZN65TEST_LoadDiceGameConfiguration_InvalidTooManyEqualSigns_TestShellD1Ev
FN:143,_ZN65TEST_LoadDiceGameConfiguration_InvalidTooManyEqualSigns_TestShellC1Ev
FN:143,_ZN60TEST_LoadDiceGameConfiguration_InvalidTooManyEqualSigns_TestD1Ev
FN:143,__tcf_22
FN:152,_ZN61TEST_LoadDiceGameConfiguration_InvalidMissingDiceSection_TestD1Ev
FN:152,__tcf_25
FN:152,_ZN61TEST_LoadDiceGameConfiguration_InvalidMissingDiceSection_TestC1Ev
FN:152,_ZN66TEST_LoadDiceGameConfiguration_InvalidMissingDiceSection_TestShellD1Ev
FN:152,__tcf_24
FN:152,_ZN61TEST_LoadDiceGameConfiguration_InvalidMissingDiceSection_Test8testBodyEv
FN:152,_ZN61TEST_LoadDiceGameConfiguration_InvalidMissingDiceSection_TestD0Ev
FN:152,_ZN66TEST_LoadDiceGameConfiguration_InvalidMissingDiceSection_TestShellC1Ev
FN:152,_ZN66TEST_LoadDiceGameConfiguration_InvalidMissingDiceSection_TestShell10createTestEv
FN:152,_ZN66TEST_LoadDiceGameConfiguration_InvalidMissingDiceSection_TestShellD0Ev
FN:160,_ZN53TEST_LoadDiceGameConfiguration_InvalidLoadedSide_Test8testBodyEv
FN:160,__tcf_27
FN:160,_ZN58TEST_LoadDiceGameConfiguration_InvalidLoadedSide_TestShell10createTestEv
FN:160,__tcf_26
FN:160,_ZN53TEST_LoadDiceGameConfiguration_InvalidLoadedSide_TestD1Ev
FN:160,_ZN53TEST_LoadDiceGameConfiguration_InvalidLoadedSide_TestC1Ev
FN:160,_ZN58TEST_LoadDiceGameConfiguration_InvalidLoadedSide_TestShellD0Ev
FN:160,_ZN58TEST_LoadDiceGameConfiguration_InvalidLoadedSide_TestShellC1Ev
FN:160,_ZN58TEST_LoadDiceGameConfiguration_InvalidLoadedSide_TestShellD1Ev
FN:160,_ZN53TEST_LoadDiceGameConfiguration_InvalidLoadedSide_TestD0Ev
FN:168,_ZN66TEST_LoadDiceGameConfiguration_InvalidLoadedSideNegative_TestShellD1Ev
FN:168,_ZN61TEST_LoadDiceGameConfiguration_InvalidLoadedSideNegative_TestD0Ev
FN:168,_ZN61TEST_LoadDiceGameConfiguration_InvalidLoadedSideNegative_TestC1Ev
FN:168,_ZN66TEST_LoadDiceGameConfiguration_InvalidLoadedSideNegative_TestShellD0Ev
FN:168,_ZN66TEST_LoadDiceGameConfiguration_InvalidLoadedSideNegative_TestShell10createTestEv
FN:168,__tcf_28
FN:168,_ZN61TEST_LoadDiceGameConfiguration_InvalidLoadedSideNegative_TestD1Ev
FN:168,_ZN66TEST_LoadDiceGameConfiguration_InvalidLoadedSideNegative_TestShellC1Ev
FN:168,_ZN61TEST_LoadDiceGameConfiguration_InvalidLoadedSideNegative_Test8testBodyEv
FN:168,__tcf_29
FN:175,_GLOBAL__I_externTestGroupLoadDiceGameConfiguration
FNDA:0,_ZN49TEST_GROUP_CppUTestGroupLoadDiceGameConfigurationD0Ev
FNDA:0,_ZN49TEST_GROUP_CppUTestGroupLoadDiceGameConfigurationD1Ev
FNDA:15,_ZN49TEST_GROUP_CppUTestGroupLoadDiceGameConfigurationD2Ev
FNDA:15,_ZN49TEST_GROUP_CppUTestGroupLoadDiceGameConfigurationC2Ev
FNDA:1,_ZN61TEST_LoadDiceGameConfiguration_NoConfigurationIsNotValid_TestD0Ev
FNDA:0,_ZN61TEST_LoadDiceGameConfiguration_NoConfigurationIsNotValid_TestD1Ev
FNDA:1,_ZN66TEST_LoadDiceGameConfiguration_NoConfigurationIsNotValid_TestShellC1Ev
FNDA:1,__tcf_1
FNDA:1,__tcf_0
FNDA:1,_ZN66TEST_LoadDiceGameConfiguration_NoConfigurationIsNotValid_TestShellD1Ev
FNDA:1,_ZN61TEST_LoadDiceGameConfiguration_NoConfigurationIsNotValid_Test8testBodyEv
FNDA:1,_ZN66TEST_LoadDiceGameConfiguration_NoConfigurationIsNotValid_TestShell10createTestEv
FNDA:1,_ZN61TEST_LoadDiceGameConfiguration_NoConfigurationIsNotValid_TestC1Ev
FNDA:1,_ZN66TEST_LoadDiceGameConfiguration_MissingConfigurationIsNotValid_TestD0Ev
FNDA:0,_ZN66TEST_LoadDiceGameConfiguration_MissingConfigurationIsNotValid_TestD1Ev
FNDA:1,_ZN71TEST_LoadDiceGameConfiguration_MissingConfigurationIsNotValid_TestShellC1Ev
FNDA:1,__tcf_3
FNDA:1,__tcf_2
FNDA:1,_ZN71TEST_LoadDiceGameConfiguration_MissingConfigurationIsNotValid_TestShellD1Ev
FNDA:1,_ZN66TEST_LoadDiceGameConfiguration_MissingConfigurationIsNotValid_Test8testBodyEv
FNDA:1,_ZN71TEST_LoadDiceGameConfiguration_MissingConfigurationIsNotValid_TestShell10createTestEv
FNDA:1,_ZN66TEST_LoadDiceGameConfiguration_MissingConfigurationIsNotValid_TestC1Ev
FNDA:1,_ZN54TEST_LoadDiceGameConfiguration_LoadDiceGameConfig_TestD0Ev
FNDA:0,_ZN54TEST_LoadDiceGameConfiguration_LoadDiceGameConfig_TestD1Ev
FNDA:1,_ZN59TEST_LoadDiceGameConfiguration_LoadDiceGameConfig_TestShellC1Ev
FNDA:1,__tcf_5
FNDA:1,__tcf_4
FNDA:1,_ZN59TEST_LoadDiceGameConfiguration_LoadDiceGameConfig_TestShellD1Ev
FNDA:1,_ZN54TEST_LoadDiceGameConfiguration_LoadDiceGameConfig_Test8testBodyEv
FNDA:1,_ZN59TEST_LoadDiceGameConfiguration_LoadDiceGameConfig_TestShell10createTestEv
FNDA:1,_ZN54TEST_LoadDiceGameConfiguration_LoadDiceGameConfig_TestC1Ev
FNDA:1,_ZN51TEST_LoadDiceGameConfiguration_InvalidNumRolls_TestD0Ev
FNDA:0,_ZN51TEST_LoadDiceGameConfiguration_InvalidNumRolls_TestD1Ev
FNDA:1,_ZN56TEST_LoadDiceGameConfiguration_InvalidNumRolls_TestShellC1Ev
FNDA:1,__tcf_7
FNDA:1,__tcf_6
FNDA:1,_ZN56TEST_LoadDiceGameConfiguration_InvalidNumRolls_TestShellD1Ev
FNDA:1,_ZN51TEST_LoadDiceGameConfiguration_InvalidNumRolls_Test8testBodyEv
FNDA:1,_ZN56TEST_LoadDiceGameConfiguration_InvalidNumRolls_TestShell10createTestEv
FNDA:1,_ZN51TEST_LoadDiceGameConfiguration_InvalidNumRolls_TestC1Ev
FNDA:1,_ZN61TEST_LoadDiceGameConfiguration_InvalidNumRollsNotNumeric_TestD0Ev
FNDA:0,_ZN61TEST_LoadDiceGameConfiguration_InvalidNumRollsNotNumeric_TestD1Ev
FNDA:1,_ZN66TEST_LoadDiceGameConfiguration_InvalidNumRollsNotNumeric_TestShellC1Ev
FNDA:1,__tcf_9
FNDA:1,__tcf_8
FNDA:1,_ZN66TEST_LoadDiceGameConfiguration_InvalidNumRollsNotNumeric_TestShellD1Ev
FNDA:1,_ZN61TEST_LoadDiceGameConfiguration_InvalidNumRollsNotNumeric_Test8testBodyEv
FNDA:1,_ZN66TEST_LoadDiceGameConfiguration_InvalidNumRollsNotNumeric_TestShell10createTestEv
FNDA:1,_ZN61TEST_LoadDiceGameConfiguration_InvalidNumRollsNotNumeric_TestC1Ev
FNDA:1,_ZN56TEST_LoadDiceGameConfiguration_InvalidDiceCountZero_TestD0Ev
FNDA:0,_ZN56TEST_LoadDiceGameConfiguration_InvalidDiceCountZero_TestD1Ev
FNDA:1,_ZN61TEST_LoadDiceGameConfiguration_InvalidDiceCountZero_TestShellC1Ev
FNDA:1,__tcf_11
FNDA:1,__tcf_10
FNDA:1,_ZN61TEST_LoadDiceGameConfiguration_InvalidDiceCountZero_TestShellD1Ev
FNDA:1,_ZN56TEST_LoadDiceGameConfiguration_InvalidDiceCountZero_Test8testBodyEv
FNDA:1,_ZN61TEST_LoadDiceGameConfiguration_InvalidDiceCountZero_TestShell10createTestEv
FNDA:1,_ZN56TEST_LoadDiceGameConfiguration_InvalidDiceCountZero_TestC1Ev
FNDA:1,_ZN55TEST_LoadDiceGameConfiguration_InvalidDuplicatDie1_TestD0Ev
FNDA:0,_ZN55TEST_LoadDiceGameConfiguration_InvalidDuplicatDie1_TestD1Ev
FNDA:1,_ZN60TEST_LoadDiceGameConfiguration_InvalidDuplicatDie1_TestShellC1Ev
FNDA:1,__tcf_13
FNDA:1,__tcf_12
FNDA:1,_ZN60TEST_LoadDiceGameConfiguration_InvalidDuplicatDie1_TestShellD1Ev
FNDA:1,_ZN55TEST_LoadDiceGameConfiguration_InvalidDuplicatDie1_Test8testBodyEv
FNDA:1,_ZN60TEST_LoadDiceGameConfiguration_InvalidDuplicatDie1_TestShell10createTestEv
FNDA:1,_ZN55TEST_LoadDiceGameConfiguration_InvalidDuplicatDie1_TestC1Ev
FNDA:1,_ZN64TEST_LoadDiceGameConfiguration_InvalidDiceCountGreaterThan2_TestD0Ev
FNDA:0,_ZN64TEST_LoadDiceGameConfiguration_InvalidDiceCountGreaterThan2_TestD1Ev
FNDA:1,_ZN69TEST_LoadDiceGameConfiguration_InvalidDiceCountGreaterThan2_TestShellC1Ev
FNDA:1,__tcf_15
FNDA:1,__tcf_14
FNDA:1,_ZN69TEST_LoadDiceGameConfiguration_InvalidDiceCountGreaterThan2_TestShellD1Ev
FNDA:1,_ZN64TEST_LoadDiceGameConfiguration_InvalidDiceCountGreaterThan2_Test8testBodyEv
FNDA:1,_ZN69TEST_LoadDiceGameConfiguration_InvalidDiceCountGreaterThan2_TestShell10createTestEv
FNDA:1,_ZN64TEST_LoadDiceGameConfiguration_InvalidDiceCountGreaterThan2_TestC1Ev
FNDA:1,_ZN61TEST_LoadDiceGameConfiguration_InvalidDiceCountLessThan2_TestD0Ev
FNDA:0,_ZN61TEST_LoadDiceGameConfiguration_InvalidDiceCountLessThan2_TestD1Ev
FNDA:1,_ZN66TEST_LoadDiceGameConfiguration_InvalidDiceCountLessThan2_TestShellC1Ev
FNDA:1,__tcf_17
FNDA:1,__tcf_16
FNDA:1,_ZN66TEST_LoadDiceGameConfiguration_InvalidDiceCountLessThan2_TestShellD1Ev
FNDA:1,_ZN61TEST_LoadDiceGameConfiguration_InvalidDiceCountLessThan2_Test8testBodyEv
FNDA:1,_ZN66TEST_LoadDiceGameConfiguration_InvalidDiceCountLessThan2_TestShell10createTestEv
FNDA:1,_ZN61TEST_LoadDiceGameConfiguration_InvalidDiceCountLessThan2_TestC1Ev
FNDA:1,_ZN63TEST_LoadDiceGameConfiguration_InvalidLoadedSideNotNumeric_TestD0Ev
FNDA:0,_ZN63TEST_LoadDiceGameConfiguration_InvalidLoadedSideNotNumeric_TestD1Ev
FNDA:1,_ZN68TEST_LoadDiceGameConfiguration_InvalidLoadedSideNotNumeric_TestShellC1Ev
FNDA:1,__tcf_19
FNDA:1,__tcf_18
FNDA:1,_ZN68TEST_LoadDiceGameConfiguration_InvalidLoadedSideNotNumeric_TestShellD1Ev
FNDA:1,_ZN63TEST_LoadDiceGameConfiguration_InvalidLoadedSideNotNumeric_Test8testBodyEv
FNDA:1,_ZN68TEST_LoadDiceGameConfiguration_InvalidLoadedSideNotNumeric_TestShell10createTestEv
FNDA:1,_ZN63TEST_LoadDiceGameConfiguration_InvalidLoadedSideNotNumeric_TestC1Ev
FNDA:1,_ZN63TEST_LoadDiceGameConfiguration_InvalidLoadAmountNotNumeric_TestD0Ev
FNDA:0,_ZN63TEST_LoadDiceGameConfiguration_InvalidLoadAmountNotNumeric_TestD1Ev
FNDA:1,_ZN68TEST_LoadDiceGameConfiguration_InvalidLoadAmountNotNumeric_TestShellC1Ev
FNDA:1,__tcf_21
FNDA:1,__tcf_20
FNDA:1,_ZN68TEST_LoadDiceGameConfiguration_InvalidLoadAmountNotNumeric_TestShellD1Ev
FNDA:1,_ZN63TEST_LoadDiceGameConfiguration_InvalidLoadAmountNotNumeric_Test8testBodyEv
FNDA:1,_ZN68TEST_LoadDiceGameConfiguration_InvalidLoadAmountNotNumeric_TestShell10createTestEv
FNDA:1,_ZN63TEST_LoadDiceGameConfiguration_InvalidLoadAmountNotNumeric_TestC1Ev
FNDA:1,_ZN60TEST_LoadDiceGameConfiguration_InvalidTooManyEqualSigns_TestD0Ev
FNDA:0,_ZN60TEST_LoadDiceGameConfiguration_InvalidTooManyEqualSigns_TestD1Ev
FNDA:1,_ZN65TEST_LoadDiceGameConfiguration_InvalidTooManyEqualSigns_TestShellC1Ev
FNDA:1,__tcf_23
FNDA:1,__tcf_22
FNDA:1,_ZN65TEST_LoadDiceGameConfiguration_InvalidTooManyEqualSigns_TestShellD1Ev
FNDA:1,_ZN60TEST_LoadDiceGameConfiguration_InvalidTooManyEqualSigns_Test8testBodyEv
FNDA:1,_ZN65TEST_LoadDiceGameConfiguration_InvalidTooManyEqualSigns_TestShell10createTestEv
FNDA:1,_ZN60TEST_LoadDiceGameConfiguration_InvalidTooManyEqualSigns_TestC1Ev
FNDA:1,_ZN61TEST_LoadDiceGameConfiguration_InvalidMissingDiceSection_TestD0Ev
FNDA:0,_ZN61TEST_LoadDiceGameConfiguration_InvalidMissingDiceSection_TestD1Ev
FNDA:1,_ZN66TEST_LoadDiceGameConfiguration_InvalidMissingDiceSection_TestShellC1Ev
FNDA:1,__tcf_25
FNDA:1,__tcf_24
FNDA:1,_ZN66TEST_LoadDiceGameConfiguration_InvalidMissingDiceSection_TestShellD1Ev
FNDA:1,_ZN61TEST_LoadDiceGameConfiguration_InvalidMissingDiceSection_Test8testBodyEv
FNDA:1,_ZN66TEST_LoadDiceGameConfiguration_InvalidMissingDiceSection_TestShell10createTestEv
FNDA:1,_ZN61TEST_LoadDiceGameConfiguration_InvalidMissingDiceSection_TestC1Ev
FNDA:1,_ZN53TEST_LoadDiceGameConfiguration_InvalidLoadedSide_TestD0Ev
FNDA:0,_ZN53TEST_LoadDiceGameConfiguration_InvalidLoadedSide_TestD1Ev
FNDA:1,_ZN58TEST_LoadDiceGameConfiguration_InvalidLoadedSide_TestShellC1Ev
FNDA:1,__tcf_27
FNDA:1,__tcf_26
FNDA:1,_ZN58TEST_LoadDiceGameConfiguration_InvalidLoadedSide_TestShellD1Ev
FNDA:1,_ZN53TEST_LoadDiceGameConfiguration_InvalidLoadedSide_Test8testBodyEv
FNDA:1,_ZN58TEST_LoadDiceGameConfiguration_InvalidLoadedSide_TestShell10createTestEv
FNDA:1,_ZN53TEST_LoadDiceGameConfiguration_InvalidLoadedSide_TestC1Ev
FNDA:1,_ZN61TEST_LoadDiceGameConfiguration_InvalidLoadedSideNegative_TestD0Ev
FNDA:0,_ZN61TEST_LoadDiceGameConfiguration_InvalidLoadedSideNegative_TestD1Ev
FNDA:1,_ZN66TEST_LoadDiceGameConfiguration_InvalidLoadedSideNegative_TestShellC1Ev
FNDA:1,__tcf_29
FNDA:1,__tcf_28
FNDA:1,_ZN66TEST_LoadDiceGameConfiguration_InvalidLoadedSideNegative_TestShellD1Ev
FNDA:1,_ZN61TEST_LoadDiceGameConfiguration_InvalidLoadedSideNegative_Test8testBodyEv
FNDA:1,_ZN66TEST_LoadDiceGameConfiguration_InvalidLoadedSideNegative_TestShell10createTestEv
FNDA:1,_ZN61TEST_LoadDiceGameConfiguration_InvalidLoadedSideNegative_TestC1Ev
FNDA:0,_ZN66TEST_LoadDiceGameConfiguration_InvalidLoadedSideNegative_TestShellD0Ev
FNDA:0,_ZN58TEST_LoadDiceGameConfiguration_InvalidLoadedSide_TestShellD0Ev
FNDA:0,_ZN66TEST_LoadDiceGameConfiguration_InvalidMissingDiceSection_TestShellD0Ev
FNDA:0,_ZN65TEST_LoadDiceGameConfiguration_InvalidTooManyEqualSigns_TestShellD0Ev
FNDA:0,_ZN68TEST_LoadDiceGameConfiguration_InvalidLoadAmountNotNumeric_TestShellD0Ev
FNDA:0,_ZN68TEST_LoadDiceGameConfiguration_InvalidLoadedSideNotNumeric_TestShellD0Ev
FNDA:0,_ZN66TEST_LoadDiceGameConfiguration_InvalidDiceCountLessThan2_TestShellD0Ev
FNDA:0,_ZN69TEST_LoadDiceGameConfiguration_InvalidDiceCountGreaterThan2_TestShellD0Ev
FNDA:0,_ZN60TEST_LoadDiceGameConfiguration_InvalidDuplicatDie1_TestShellD0Ev
FNDA:0,_ZN61TEST_LoadDiceGameConfiguration_InvalidDiceCountZero_TestShellD0Ev
FNDA:0,_ZN66TEST_LoadDiceGameConfiguration_InvalidNumRollsNotNumeric_TestShellD0Ev
FNDA:0,_ZN56TEST_LoadDiceGameConfiguration_InvalidNumRolls_TestShellD0Ev
FNDA:0,_ZN59TEST_LoadDiceGameConfiguration_LoadDiceGameConfig_TestShellD0Ev
FNDA:0,_ZN71TEST_LoadDiceGameConfiguration_MissingConfigurationIsNotValid_TestShellD0Ev
FNDA:0,_ZN66TEST_LoadDiceGameConfiguration_NoConfigurationIsNotValid_TestShellD0Ev
FNDA:1,_Z41__static_initialization_and_destruction_0ii
FNDA:1,_GLOBAL__I_externTestGroupLoadDiceGameConfiguration
FNF:156
FNH:124
DA:23,30
DA:27,9
DA:29,1
DA:30,1
DA:31,1
DA:34,9
DA:36,1
DA:37,1
DA:38,1
DA:39,1
DA:40,1
DA:54,9
DA:56,1
DA:57,1
DA:59,1
DA:60,1
DA:62,1
DA:63,1
DA:64,1
DA:65,1
DA:66,1
DA:67,1
DA:68,1
DA:69,1
DA:72,9
DA:74,1
DA:75,1
DA:76,1
DA:77,1
DA:78,1
DA:81,9
DA:83,1
DA:84,1
DA:85,1
DA:86,1
DA:87,1
DA:90,9
DA:92,1
DA:93,1
DA:94,1
DA:95,1
DA:96,1
DA:99,9
DA:101,1
DA:102,1
DA:103,1
DA:104,1
DA:105,1
DA:108,9
DA:110,1
DA:111,1
DA:112,1
DA:113,1
DA:114,1
DA:117,9
DA:119,1
DA:120,1
DA:121,1
DA:122,1
DA:123,1
DA:126,9
DA:128,1
DA:129,1
DA:130,1
DA:131,1
DA:132,1
DA:134,9
DA:136,1
DA:137,1
DA:138,1
DA:139,1
DA:140,1
DA:143,9
DA:145,1
DA:146,1
DA:147,1
DA:148,1
DA:149,1
DA:152,9
DA:154,1
DA:155,1
DA:156,1
DA:157,1
DA:158,1
DA:160,9
DA:162,1
DA:163,1
DA:164,1
DA:165,1
DA:166,1
DA:168,9
DA:170,1
DA:171,1
DA:172,1
DA:173,1
DA:174,3
DA:175,1
LF:97
LH:97
end_of_record
TN:
SF:/home/esutton/projects/dicegame/cpputest/include/CppUTest/Utest.h
FN:63,_ZN20NormalTestTerminatorC1Ev
FNDA:4,_ZN20NormalTestTerminatorC1Ev
FNF:1
FNH:1
DA:63,4
DA:70,8
LF:2
LH:2
end_of_record
SF:/home/esutton/projects/dicegame/dicegame/src/test/main_test.cpp
FN:20,_ZN28TEST_GROUP_CppUTestGroupMainD2Ev
FN:20,_ZN28TEST_GROUP_CppUTestGroupMainD0Ev
FN:20,_ZN28TEST_GROUP_CppUTestGroupMainD1Ev
FN:20,_ZN28TEST_GROUP_CppUTestGroupMainC2Ev
FN:24,_Z41__static_initialization_and_destruction_0ii
FN:24,_ZN30TEST_Main_ArgumentsTooFew_TestD0Ev
FN:24,_ZN35TEST_Main_ArgumentsTooFew_TestShellD1Ev
FN:24,_ZN30TEST_Main_ArgumentsTooFew_Test8testBodyEv
FN:24,_ZN35TEST_Main_ArgumentsTooFew_TestShellC1Ev
FN:24,_ZN35TEST_Main_ArgumentsTooFew_TestShellD0Ev
FN:24,__tcf_1
FN:24,_ZN35TEST_Main_ArgumentsTooFew_TestShell10createTestEv
FN:24,__tcf_0
FN:24,_ZN30TEST_Main_ArgumentsTooFew_TestC1Ev
FN:24,_ZN30TEST_Main_ArgumentsTooFew_TestD1Ev
FN:32,_ZN36TEST_Main_ArgumentsTooMany_TestShell10createTestEv
FN:32,_ZN36TEST_Main_ArgumentsTooMany_TestShellC1Ev
FN:32,_ZN31TEST_Main_ArgumentsTooMany_TestD1Ev
FN:32,_ZN31TEST_Main_ArgumentsTooMany_TestD0Ev
FN:32,_ZN31TEST_Main_ArgumentsTooMany_Test8testBodyEv
FN:32,__tcf_2
FN:32,__tcf_3
FN:32,_ZN36TEST_Main_ArgumentsTooMany_TestShellD1Ev
FN:32,_ZN36TEST_Main_ArgumentsTooMany_TestShellD0Ev
FN:32,_ZN31TEST_Main_ArgumentsTooMany_TestC1Ev
FN:40,_ZN47TEST_Main_ArgumentsConfigFileNotFound_TestShellD0Ev
FN:40,_ZN42TEST_Main_ArgumentsConfigFileNotFound_Test8testBodyEv
FN:40,_ZN47TEST_Main_ArgumentsConfigFileNotFound_TestShellD1Ev
FN:40,_ZN42TEST_Main_ArgumentsConfigFileNotFound_TestD1Ev
FN:40,_ZN47TEST_Main_ArgumentsConfigFileNotFound_TestShell10createTestEv
FN:40,_ZN47TEST_Main_ArgumentsConfigFileNotFound_TestShellC1Ev
FN:40,__tcf_4
FN:40,_ZN42TEST_Main_ArgumentsConfigFileNotFound_TestD0Ev
FN:40,__tcf_5
FN:40,_ZN42TEST_Main_ArgumentsConfigFileNotFound_TestC1Ev
FN:48,_ZN36TEST_Main_ArgumentsCorrect_TestShellC1Ev
FN:48,_ZN31TEST_Main_ArgumentsCorrect_TestD1Ev
FN:48,_ZN36TEST_Main_ArgumentsCorrect_TestShellD1Ev
FN:48,_ZN31TEST_Main_ArgumentsCorrect_Test8testBodyEv
FN:48,_ZN36TEST_Main_ArgumentsCorrect_TestShell10createTestEv
FN:48,__tcf_6
FN:48,__tcf_7
FN:48,_ZN36TEST_Main_ArgumentsCorrect_TestShellD0Ev
FN:48,_ZN31TEST_Main_ArgumentsCorrect_TestC1Ev
FN:48,_ZN31TEST_Main_ArgumentsCorrect_TestD0Ev
FN:56,_GLOBAL__I_externTestGroupMain
FNDA:0,_ZN28TEST_GROUP_CppUTestGroupMainD0Ev
FNDA:0,_ZN28TEST_GROUP_CppUTestGroupMainD1Ev
FNDA:4,_ZN28TEST_GROUP_CppUTestGroupMainD2Ev
FNDA:4,_ZN28TEST_GROUP_CppUTestGroupMainC2Ev
FNDA:1,_ZN30TEST_Main_ArgumentsTooFew_TestD0Ev
FNDA:0,_ZN30TEST_Main_ArgumentsTooFew_TestD1Ev
FNDA:1,_ZN35TEST_Main_ArgumentsTooFew_TestShellC1Ev
FNDA:1,__tcf_1
FNDA:1,__tcf_0
FNDA:1,_ZN35TEST_Main_ArgumentsTooFew_TestShellD1Ev
FNDA:1,_ZN30TEST_Main_ArgumentsTooFew_Test8testBodyEv
FNDA:1,_ZN35TEST_Main_ArgumentsTooFew_TestShell10createTestEv
FNDA:1,_ZN30TEST_Main_ArgumentsTooFew_TestC1Ev
FNDA:1,_ZN31TEST_Main_ArgumentsTooMany_TestD0Ev
FNDA:0,_ZN31TEST_Main_ArgumentsTooMany_TestD1Ev
FNDA:1,_ZN36TEST_Main_ArgumentsTooMany_TestShellC1Ev
FNDA:1,__tcf_3
FNDA:1,__tcf_2
FNDA:1,_ZN36TEST_Main_ArgumentsTooMany_TestShellD1Ev
FNDA:1,_ZN31TEST_Main_ArgumentsTooMany_Test8testBodyEv
FNDA:1,_ZN36TEST_Main_ArgumentsTooMany_TestShell10createTestEv
FNDA:1,_ZN31TEST_Main_ArgumentsTooMany_TestC1Ev
FNDA:1,_ZN42TEST_Main_ArgumentsConfigFileNotFound_TestD0Ev
FNDA:0,_ZN42TEST_Main_ArgumentsConfigFileNotFound_TestD1Ev
FNDA:1,_ZN47TEST_Main_ArgumentsConfigFileNotFound_TestShellC1Ev
FNDA:1,__tcf_5
FNDA:1,__tcf_4
FNDA:1,_ZN47TEST_Main_ArgumentsConfigFileNotFound_TestShellD1Ev
FNDA:1,_ZN42TEST_Main_ArgumentsConfigFileNotFound_Test8testBodyEv
FNDA:1,_ZN47TEST_Main_ArgumentsConfigFileNotFound_TestShell10createTestEv
FNDA:1,_ZN42TEST_Main_ArgumentsConfigFileNotFound_TestC1Ev
FNDA:1,_ZN31TEST_Main_ArgumentsCorrect_TestD0Ev
FNDA:0,_ZN31TEST_Main_ArgumentsCorrect_TestD1Ev
FNDA:1,_ZN36TEST_Main_ArgumentsCorrect_TestShellC1Ev
FNDA:1,__tcf_7
FNDA:1,__tcf_6
FNDA:1,_ZN36TEST_Main_ArgumentsCorrect_TestShellD1Ev
FNDA:1,_ZN31TEST_Main_ArgumentsCorrect_Test8testBodyEv
FNDA:1,_ZN36TEST_Main_ArgumentsCorrect_TestShell10createTestEv
FNDA:1,_ZN31TEST_Main_ArgumentsCorrect_TestC1Ev
FNDA:0,_ZN36TEST_Main_ArgumentsCorrect_TestShellD0Ev
FNDA:0,_ZN47TEST_Main_ArgumentsConfigFileNotFound_TestShellD0Ev
FNDA:0,_ZN36TEST_Main_ArgumentsTooMany_TestShellD0Ev
FNDA:0,_ZN35TEST_Main_ArgumentsTooFew_TestShellD0Ev
FNDA:1,_Z41__static_initialization_and_destruction_0ii
FNDA:1,_GLOBAL__I_externTestGroupMain
FNF:46
FNH:36
DA:20,8
DA:24,9
DA:26,1
DA:27,1
DA:28,1
DA:29,1
DA:30,1
DA:32,9
DA:34,1
DA:35,1
DA:36,1
DA:37,1
DA:38,1
DA:40,9
DA:42,1
DA:43,1
DA:44,1
DA:45,1
DA:46,1
DA:48,9
DA:50,1
DA:51,1
DA:52,1
DA:53,1
DA:54,1
DA:55,3
DA:56,1
LF:27
LH:27
end_of_record
TN:
SF:/usr/include/c++/4.1.2/bits/allocator.h
FN:97,_ZNSaIcEC1Ev
FN:105,_ZNSaIcED1Ev
FNDA:2,_ZNSaIcEC1Ev
FNDA:2,_ZNSaIcED1Ev
FNF:2
FNH:2
DA:97,2
DA:100,2
DA:105,10
LF:3
LH:3
end_of_record
SF:/usr/include/c++/4.1.2/bits/basic_string.h
FN:181,_ZNSs4_Rep10_M_disposeERKSaIcE
FN:255,_ZNSsD1Ev
FNDA:2,_ZNSs4_Rep10_M_disposeERKSaIcE
FNDA:2,_ZNSsD1Ev
FNF:2
FNH:2
DA:181,2
DA:182,2
DA:227,2
DA:230,2
DA:232,2
DA:233,2
DA:255,4
DA:275,4
DA:283,2
DA:477,2
DA:478,6
DA:1518,2
DA:1535,2
LF:13
LH:13
end_of_record
SF:/usr/include/c++/4.1.2/bits/ostream.tcc
FN:67,_ZNSolsEPFRSoS_E
FNDA:1,_ZNSolsEPFRSoS_E
FNF:1
FNH:1
DA:67,1
DA:72,10
LF:2
LH:2
end_of_record
SF:/usr/include/c++/4.1.2/ext/new_allocator.h
DA:72,6
LF:1
LH:1
end_of_record
SF:/usr/include/c++/4.1.2/iostream
FN:76,__tcf_0
FNDA:1,__tcf_0
FNF:1
FNH:1
DA:76,2
LF:1
LH:1
end_of_record
SF:/home/esutton/projects/dicegame/dicegame/src/main/loadeddicegame.hpp
FN:18,_ZN8dicegame14LoadedDiceGameD0Ev
FN:18,_ZN8dicegame14LoadedDiceGameD1Ev
FNDA:0,_ZN8dicegame14LoadedDiceGameD0Ev
FNDA:1,_ZN8dicegame14LoadedDiceGameD1Ev
FNF:2
FNH:1
DA:18,1
LF:1
LH:1
end_of_record
SF:/home/esutton/projects/dicegame/dicegame/src/main/main.cpp
FN:21,_ZN8dicegame12displayUsageEPKc
FN:33,_ZN8dicegame10fileExistsERSs
FN:47,_ZN8dicegame4mainEiPPc
FN:75,_Z41__static_initialization_and_destruction_0ii
FN:76,_GLOBAL__I__ZN8dicegame12displayUsageEPKc
FNDA:3,_ZN8dicegame12displayUsageEPKc
FNDA:2,_ZN8dicegame10fileExistsERSs
FNDA:4,_ZN8dicegame4mainEiPPc
FNDA:1,_Z41__static_initialization_and_destruction_0ii
FNDA:1,_GLOBAL__I__ZN8dicegame12displayUsageEPKc
FNF:5
FNH:5
DA:21,3
DA:24,3
DA:25,3
DA:26,3
DA:27,3
DA:28,3
DA:33,2
DA:35,2
DA:36,2
DA:38,1
DA:39,1
DA:41,1
DA:47,4
DA:49,4
DA:51,1
DA:52,1
DA:53,1
DA:55,3
DA:57,1
DA:58,1
DA:59,1
DA:62,2
DA:63,2
DA:65,1
DA:66,1
DA:67,3
DA:71,1
DA:72,1
DA:75,2
DA:76,1
LF:30
LH:30
end_of_record
TN:
SF:/home/esutton/projects/dicegame/dicegame/src/test/dicegame_test.cpp
FN:17,_ZN32TEST_GROUP_CppUTestGroupDiceGameD2Ev
FN:17,_ZN32TEST_GROUP_CppUTestGroupDiceGameD1Ev
FN:17,_ZN32TEST_GROUP_CppUTestGroupDiceGameC2Ev
FN:17,_ZN32TEST_GROUP_CppUTestGroupDiceGameD0Ev
FN:21,_Z41__static_initialization_and_destruction_0ii
FN:21,_ZN33TEST_DiceGame_PlayAGame_TestShellC1Ev
FN:21,_ZN28TEST_DiceGame_PlayAGame_TestC1Ev
FN:21,_ZN33TEST_DiceGame_PlayAGame_TestShellD1Ev
FN:21,_ZN33TEST_DiceGame_PlayAGame_TestShellD0Ev
FN:21,__tcf_1
FN:21,_ZN28TEST_DiceGame_PlayAGame_Test8testBodyEv
FN:21,_ZN33TEST_DiceGame_PlayAGame_TestShell10createTestEv
FN:21,__tcf_0
FN:21,_ZN28TEST_DiceGame_PlayAGame_TestD0Ev
FN:21,_ZN28TEST_DiceGame_PlayAGame_TestD1Ev
FN:52,_GLOBAL__I_externTestGroupDiceGame
FNDA:0,_ZN32TEST_GROUP_CppUTestGroupDiceGameD0Ev
FNDA:0,_ZN32TEST_GROUP_CppUTestGroupDiceGameD1Ev
FNDA:1,_ZN32TEST_GROUP_CppUTestGroupDiceGameD2Ev
FNDA:1,_ZN32TEST_GROUP_CppUTestGroupDiceGameC2Ev
FNDA:1,_ZN28TEST_DiceGame_PlayAGame_TestD0Ev
FNDA:0,_ZN28TEST_DiceGame_PlayAGame_TestD1Ev
FNDA:1,_ZN33TEST_DiceGame_PlayAGame_TestShellC1Ev
FNDA:1,__tcf_1
FNDA:1,__tcf_0
FNDA:1,_ZN33TEST_DiceGame_PlayAGame_TestShellD1Ev
FNDA:1,_ZN28TEST_DiceGame_PlayAGame_Test8testBodyEv
FNDA:1,_ZN33TEST_DiceGame_PlayAGame_TestShell10createTestEv
FNDA:1,_ZN28TEST_DiceGame_PlayAGame_TestC1Ev
FNDA:0,_ZN33TEST_DiceGame_PlayAGame_TestShellD0Ev
FNDA:1,_Z41__static_initialization_and_destruction_0ii
FNDA:1,_GLOBAL__I_externTestGroupDiceGame
FNF:16
FNH:12
DA:17,2
DA:21,9
DA:23,1
DA:24,1
DA:25,1
DA:26,1
DA:27,1
DA:29,1
DA:30,1
DA:31,1
DA:32,1
DA:33,1
DA:34,101
DA:36,100
DA:37,0
DA:50,0
DA:51,3
DA:52,1
LF:18
LH:16
end_of_record
TN:
SF:/usr/include/c++/4.1.2/bits/allocator.h
FN:97,_ZNSaIPN8dicegame3DieEEC1Ev
FN:105,_ZNSaIPN8dicegame3DieEED1Ev
FNDA:6,_ZNSaIPN8dicegame3DieEEC1Ev
FNDA:6,_ZNSaIPN8dicegame3DieEED1Ev
FNF:2
FNH:2
DA:97,6
DA:100,30
DA:105,60
LF:3
LH:3
end_of_record
SF:/usr/include/c++/4.1.2/bits/stl_algobase.h
FN:298,_ZNSt6__copyILb1ESt26random_access_iterator_tagE4copyIPN8dicegame3DieEEEPT_PKS6_S9_S7_
FN:376,_ZSt4copyIN9__gnu_cxx17__normal_iteratorIPPN8dicegame3DieESt6vectorIS4_SaIS4_EEEES9_ET0_T_SB_SA_
FN:422,_ZNSt15__copy_backwardILb1ESt26random_access_iterator_tagE6copy_bIPN8dicegame3DieEEEPT_PKS6_S9_S7_
FN:504,_ZSt13copy_backwardIN9__gnu_cxx17__normal_iteratorIPPN8dicegame3DieESt6vectorIS4_SaIS4_EEEES9_ET0_T_SB_SA_
FNDA:12,_ZNSt6__copyILb1ESt26random_access_iterator_tagE4copyIPN8dicegame3DieEEEPT_PKS6_S9_S7_
FNDA:12,_ZNSt13__copy_normalILb1ELb1EE6copy_nIN9__gnu_cxx17__normal_iteratorIPPN8dicegame3DieESt6vectorIS6_SaIS6_EEEESB_EET0_T_SD_SC_
FNDA:12,_ZSt4copyIN9__gnu_cxx17__normal_iteratorIPPN8dicegame3DieESt6vectorIS4_SaIS4_EEEES9_ET0_T_SB_SA_
FNDA:0,_ZNSt15__copy_backwardILb1ESt26random_access_iterator_tagE6copy_bIPN8dicegame3DieEEEPT_PKS6_S9_S7_
FNDA:0,_ZNSt22__copy_backward_normalILb1ELb1EE8copy_b_nIN9__gnu_cxx17__normal_iteratorIPPN8dicegame3DieESt6vectorIS6_SaIS6_EEEESB_EET0_T_SD_SC_
FNDA:0,_ZSt13copy_backwardIN9__gnu_cxx17__normal_iteratorIPPN8dicegame3DieESt6vectorIS4_SaIS4_EEEES9_ET0_T_SB_SA_
FNF:6
FNH:3
DA:298,12
DA:300,12
DA:301,12
DA:315,12
DA:317,12
DA:352,12
DA:354,48
DA:376,12
DA:384,12
DA:385,12
DA:387,12
DA:422,0
DA:424,0
DA:425,0
DA:426,0
DA:440,0
DA:443,0
DA:480,0
DA:482,0
DA:504,0
DA:514,0
DA:515,0
DA:517,0
LF:23
LH:11
end_of_record
SF:/usr/include/c++/4.1.2/bits/stl_construct.h
DA:155,12
LF:1
LH:1
end_of_record
SF:/usr/include/c++/4.1.2/bits/stl_iterator.h
FN:663,_ZNK9__gnu_cxx17__normal_iteratorIPPN8dicegame3DieESt6vectorIS3_SaIS3_EEEdeEv
FN:671,_ZN9__gnu_cxx17__normal_iteratorIPPN8dicegame3DieESt6vectorIS3_SaIS3_EEEppEv
FN:716,_ZN9__gnu_cxxneIPPN8dicegame3DieESt6vectorIS3_SaIS3_EEEEbRKNS_17__normal_iteratorIT_T0_EESD_
FNDA:606,_ZNK9__gnu_cxx17__normal_iteratorIPPN8dicegame3DieESt6vectorIS3_SaIS3_EEEdeEv
FNDA:606,_ZN9__gnu_cxx17__normal_iteratorIPPN8dicegame3DieESt6vectorIS3_SaIS3_EEEppEv
FNDA:912,_ZN9__gnu_cxxneIPPN8dicegame3DieESt6vectorIS3_SaIS3_EEEEbRKNS_17__normal_iteratorIT_T0_EESD_
FNF:3
FNH:3
DA:650,1278
DA:663,606
DA:664,606
DA:671,606
DA:673,612
DA:674,612
DA:716,1896
DA:749,912
DA:750,1824
DA:809,12
LF:10
LH:10
end_of_record
SF:/usr/include/c++/4.1.2/bits/stl_uninitialized.h
FN:73,_ZSt24__uninitialized_copy_auxIN9__gnu_cxx17__normal_iteratorIPPN8dicegame3DieESt6vectorIS4_SaIS4_EEEES9_ET0_T_SB_SA_11__true_type
FN:108,_ZSt18uninitialized_copyIN9__gnu_cxx17__normal_iteratorIPPN8dicegame3DieESt6vectorIS4_SaIS4_EEEES9_ET0_T_SB_SA_
FN:252,_ZSt22__uninitialized_copy_aIN9__gnu_cxx17__normal_iteratorIPPN8dicegame3DieESt6vectorIS4_SaIS4_EEEES9_S4_ET0_T_SB_SA_SaIT1_E
FNDA:12,_ZSt24__uninitialized_copy_auxIN9__gnu_cxx17__normal_iteratorIPPN8dicegame3DieESt6vectorIS4_SaIS4_EEEES9_ET0_T_SB_SA_11__true_type
FNDA:12,_ZSt18uninitialized_copyIN9__gnu_cxx17__normal_iteratorIPPN8dicegame3DieESt6vectorIS4_SaIS4_EEEES9_ET0_T_SB_SA_
FNDA:12,_ZSt22__uninitialized_copy_aIN9__gnu_cxx17__normal_iteratorIPPN8dicegame3DieESt6vectorIS4_SaIS4_EEEES9_S4_ET0_T_SB_SA_SaIT1_E
FNF:3
FNH:3
DA:73,12
DA:74,12
DA:108,12
DA:113,12
DA:252,12
DA:254,12
LF:6
LH:6
end_of_record
SF:/usr/include/c++/4.1.2/bits/stl_vector.h
FN:82,_ZNSt12_Vector_baseIPN8dicegame3DieESaIS2_EED2Ev
FN:87,_ZNSt6vectorIPN8dicegame3DieESaIS2_EEC1ERKS3_
FN:96,_ZNSt6vectorIPN8dicegame3DieESaIS2_EED1Ev
FN:126,_ZNSt12_Vector_baseIPN8dicegame3DieESaIS2_EE11_M_allocateEj
FNDA:6,_ZNSt12_Vector_baseIPN8dicegame3DieESaIS2_EED2Ev
FNDA:6,_ZNSt12_Vector_baseIPN8dicegame3DieESaIS2_EE11_M_allocateEj
FNDA:6,_ZNSt6vectorIPN8dicegame3DieESaIS2_EEC1ERKS3_
FNDA:6,_ZNSt6vectorIPN8dicegame3DieESaIS2_EED1Ev
FNDA:306,_ZNSt6vectorIPN8dicegame3DieESaIS2_EE5beginEv
FNDA:912,_ZNSt6vectorIPN8dicegame3DieESaIS2_EE3endEv
FNDA:6,_ZNKSt6vectorIPN8dicegame3DieESaIS2_EE4sizeEv
FNDA:6,_ZNSt6vectorIPN8dicegame3DieESaIS2_EE9push_backERKS2_
FNF:8
FNH:8
DA:82,12
DA:87,12
DA:96,24
DA:107,6
DA:118,6
DA:119,18
DA:126,6
DA:127,6
DA:132,12
DA:133,6
DA:202,6
DA:203,6
DA:204,6
DA:271,6
DA:272,18
DA:332,306
DA:333,312
DA:342,6
DA:350,912
DA:351,924
DA:360,6
DA:401,6
DA:402,18
DA:407,6
DA:602,6
DA:604,6
DA:606,0
DA:607,0
DA:610,6
LF:29
LH:27
end_of_record
SF:/usr/include/c++/4.1.2/bits/vector.tcc
FNDA:6,_ZNSt6vectorIPN8dicegame3DieESaIS2_EE13_M_insert_auxEN9__gnu_cxx17__normal_iteratorIPS2_S4_EERKS2_
FNF:1
FNH:1
DA:249,6
DA:251,6
DA:253,0
DA:255,0
DA:256,0
DA:257,0
DA:260,0
DA:264,6
DA:265,6
DA:266,0
DA:271,6
DA:272,6
DA:273,0
DA:275,6
DA:276,6
DA:279,18
DA:284,6
DA:286,24
DA:292,0
DA:294,0
DA:295,0
DA:296,0
DA:298,24
DA:299,6
DA:302,6
DA:303,6
DA:304,6
LF:27
LH:16
end_of_record
SF:/usr/include/c++/4.1.2/ext/new_allocator.h
FN:83,_ZN9__gnu_cxx13new_allocatorIPN8dicegame3DieEE8allocateEjPKv
FNDA:6,_ZN9__gnu_cxx13new_allocatorIPN8dicegame3DieEE8allocateEjPKv
FNF:1
FNH:1
DA:72,36
DA:83,6
DA:85,6
DA:86,0
DA:88,6
DA:94,6
DA:98,6
DA:104,6
LF:8
LH:7
end_of_record
SF:/usr/include/c++/4.1.2/new
DA:94,6
LF:1
LH:1
end_of_record
SF:/home/esutton/projects/dicegame/dicegame/src/main/dicegame.cpp
FN:23,_ZN8dicegame8DiceGameC1Ev
FN:23,_ZN8dicegame8DiceGameC2Ev
FN:46,_ZN8dicegame8DiceGameD1Ev
FN:46,_ZN8dicegame8DiceGameD0Ev
FN:46,_ZN8dicegame8DiceGameD2Ev
FN:57,_ZN8dicegame8DiceGame4playEv
FN:68,_ZN8dicegame8DiceGame6addDieEPNS_3DieE
FN:74,_ZNK8dicegame8DiceGame13dieCollectionEv
FNDA:3,_ZN8dicegame8DiceGameC1Ev
FNDA:3,_ZN8dicegame8DiceGameC2Ev
FNDA:0,_ZN8dicegame8DiceGameD0Ev
FNDA:3,_ZN8dicegame8DiceGameD1Ev
FNDA:3,_ZN8dicegame8DiceGameD2Ev
FNDA:300,_ZN8dicegame8DiceGame4playEv
FNDA:6,_ZN8dicegame8DiceGame6addDieEPNS_3DieE
FNDA:1002,_ZNK8dicegame8DiceGame13dieCollectionEv
FNF:8
FNH:7
DA:23,6
DA:25,6
DA:46,6
DA:50,12
DA:52,6
DA:54,0
DA:57,300
DA:59,900
DA:61,600
DA:63,300
DA:68,6
DA:70,6
DA:71,6
DA:74,1002
LF:14
LH:13
end_of_record
TN:
SF:/usr/include/c++/4.1.2/bits/allocator.h
DA:100,8
DA:105,12
LF:2
LH:2
end_of_record
SF:/usr/include/c++/4.1.2/bits/ostream.tcc
FN:67,_ZNSolsEPFRSoS_E
FNDA:1,_ZNSolsEPFRSoS_E
FNF:1
FNH:1
DA:67,1
DA:72,1
LF:2
LH:2
end_of_record
SF:/usr/include/c++/4.1.2/bits/stl_algobase.h
FN:298,_ZNSt6__copyILb1ESt26random_access_iterator_tagE4copyIPN8dicegame3DieEEEPT_PKS6_S9_S7_
FNDA:2,_ZNSt6__copyILb1ESt26random_access_iterator_tagE4copyIPN8dicegame3DieEEEPT_PKS6_S9_S7_
FNF:1
FNH:1
DA:298,2
DA:300,2
DA:301,2
DA:315,2
DA:317,2
DA:335,6
DA:384,2
DA:385,2
DA:387,2
LF:9
LH:9
end_of_record
SF:/usr/include/c++/4.1.2/bits/stl_construct.h
DA:155,2
LF:1
LH:1
end_of_record
SF:/usr/include/c++/4.1.2/bits/stl_iterator.h
DA:650,2096
DA:664,432
DA:704,432
DA:716,1232
DA:809,1228
LF:5
LH:5
end_of_record
SF:/usr/include/c++/4.1.2/bits/stl_uninitialized.h
FN:74,_ZSt18uninitialized_copyIN9__gnu_cxx17__normal_iteratorIPKPN8dicegame3DieESt6vectorIS4_SaIS4_EEEEPS4_ET0_T_SD_SC_
FNDA:2,_ZSt18uninitialized_copyIN9__gnu_cxx17__normal_iteratorIPKPN8dicegame3DieESt6vectorIS4_SaIS4_EEEEPS4_ET0_T_SD_SC_
FNF:1
FNH:1
DA:74,2
DA:108,2
DA:113,4
DA:254,2
LF:4
LH:4
end_of_record
SF:/usr/include/c++/4.1.2/bits/stl_vector.h
FN:82,_ZNSt12_Vector_baseIPN8dicegame3DieESaIS2_EEC2EjRKS3_
FN:82,_ZNSt12_Vector_baseIPN8dicegame3DieESaIS2_EED2Ev
FN:96,_ZNSt6vectorIPN8dicegame3DieESaIS2_EEC1ERKS4_
FN:96,_ZNSt6vectorIPN8dicegame3DieESaIS2_EED1Ev
FN:126,_ZNSt12_Vector_baseIPN8dicegame3DieESaIS2_EE11_M_allocateEj
FN:342,_ZNKSt6vectorIPN8dicegame3DieESaIS2_EE4sizeEv
FN:342,_ZNKSt6vectorIN8dicegame25LoadDiceGameConfiguration11StructDie_tESaIS2_EEixEj
FN:342,_ZNKSt6vectorIN8dicegame25LoadDiceGameConfiguration11StructDie_tESaIS2_EE4sizeEv
FN:342,_ZNKSt6vectorIPN8dicegame3DieESaIS2_EEixEj
FNDA:2,_ZNSt12_Vector_baseIPN8dicegame3DieESaIS2_EEC2EjRKS3_
FNDA:2,_ZNSt12_Vector_baseIPN8dicegame3DieESaIS2_EED2Ev
FNDA:2,_ZNSt12_Vector_baseIPN8dicegame3DieESaIS2_EE11_M_allocateEj
FNDA:2,_ZNSt6vectorIPN8dicegame3DieESaIS2_EEC1ERKS4_
FNDA:2,_ZNSt6vectorIPN8dicegame3DieESaIS2_EED1Ev
FNDA:608,_ZNKSt6vectorIPN8dicegame3DieESaIS2_EE4sizeEv
FNDA:6,_ZNKSt6vectorIN8dicegame25LoadDiceGameConfiguration11StructDie_tESaIS2_EE4sizeEv
FNDA:424,_ZNKSt6vectorIPN8dicegame3DieESaIS2_EEixEj
FNDA:8,_ZNKSt6vectorIN8dicegame25LoadDiceGameConfiguration11StructDie_tESaIS2_EEixEj
FNF:9
FNH:9
DA:82,4
DA:87,4
DA:96,4
DA:100,2
DA:104,2
DA:110,2
DA:111,2
DA:113,2
DA:114,2
DA:115,2
DA:118,2
DA:119,6
DA:126,2
DA:127,2
DA:132,2
DA:133,2
DA:232,2
DA:233,4
DA:234,12
DA:271,2
DA:272,6
DA:342,1048
DA:360,616
DA:401,614
DA:402,1842
DA:494,432
DA:495,1728
LF:27
LH:27
end_of_record
SF:/usr/include/c++/4.1.2/ext/new_allocator.h
FN:83,_ZN9__gnu_cxx13new_allocatorIPN8dicegame3DieEE8allocateEjPKv
FNDA:2,_ZN9__gnu_cxx13new_allocatorIPN8dicegame3DieEE8allocateEjPKv
FNF:1
FNH:1
DA:72,8
DA:83,2
DA:85,2
DA:86,0
DA:88,2
DA:94,2
DA:98,2
LF:7
LH:6
end_of_record
SF:/usr/include/c++/4.1.2/iostream
FN:76,__tcf_0
FNDA:1,__tcf_0
FNF:1
FNH:1
DA:76,2
LF:1
LH:1
end_of_record
SF:/home/esutton/projects/dicegame/dicegame/src/main/loadeddicegame.cpp
FN:19,_ZN8dicegame14LoadedDiceGameC2Ev
FN:19,_ZN8dicegame14LoadedDiceGameC1Ev
FN:26,_ZN8dicegame14LoadedDiceGame4playERSs
FN:85,_Z41__static_initialization_and_destruction_0ii
FN:86,_GLOBAL__I__ZN8dicegame14LoadedDiceGameC2Ev
FNDA:3,_ZN8dicegame14LoadedDiceGameC1Ev
FNDA:0,_ZN8dicegame14LoadedDiceGameC2Ev
FNDA:3,_ZN8dicegame14LoadedDiceGame4playERSs
FNDA:1,_Z41__static_initialization_and_destruction_0ii
FNDA:1,_GLOBAL__I__ZN8dicegame14LoadedDiceGameC2Ev
FNF:5
FNH:4
DA:19,3
DA:21,3
DA:26,3
DA:28,3
DA:30,1
DA:31,1
DA:34,2
DA:35,2
DA:36,2
DA:38,0
DA:39,0
DA:40,2
DA:44,2
DA:45,6
DA:47,4
DA:48,4
DA:49,4
DA:53,2
DA:54,202
DA:56,200
DA:57,200
DA:58,600
DA:61,400
DA:63,200
DA:65,400
DA:67,200
DA:71,2
DA:72,6
DA:74,4
DA:75,28
DA:78,24
DA:81,2
DA:84,2
DA:85,2
DA:86,1
LF:35
LH:33
end_of_record
SF:/home/esutton/projects/dicegame/dicegame/src/main/loadeddicegame.hpp
FN:18,_ZN8dicegame14LoadedDiceGameD0Ev
FN:18,_ZN8dicegame14LoadedDiceGameD1Ev
FNDA:0,_ZN8dicegame14LoadedDiceGameD0Ev
FNDA:0,_ZN8dicegame14LoadedDiceGameD1Ev
FNF:2
FNH:0
DA:18,0
LF:1
LH:0
end_of_record
TN:
SF:/home/esutton/projects/dicegame/dicegame/src/main/loadeddie.cpp
FN:43,_ZN8dicegame9LoadedDieC2Ejj
FN:43,_ZN8dicegame9LoadedDieC1Ejj
FN:58,_ZN8dicegame9LoadedDieD0Ev
FN:58,_ZN8dicegame9LoadedDieD2Ev
FN:58,_ZN8dicegame9LoadedDieD1Ev
FN:75,_ZN8dicegame9LoadedDie7loadDieEjj
FN:104,_ZN8dicegame9LoadedDie4rollEv
FNDA:600015,_ZN8dicegame9LoadedDieC1Ejj
FNDA:0,_ZN8dicegame9LoadedDieC2Ejj
FNDA:6,_ZN8dicegame9LoadedDieD0Ev
FNDA:600009,_ZN8dicegame9LoadedDieD1Ev
FNDA:0,_ZN8dicegame9LoadedDieD2Ev
FNDA:600015,_ZN8dicegame9LoadedDie7loadDieEjj
FNDA:1500615,_ZN8dicegame9LoadedDie4rollEv
FNF:7
FNH:5
DA:43,600015
DA:45,600015
DA:48,600015
DA:49,600015
DA:51,4200105
DA:53,3600090
DA:55,0
DA:58,600015
DA:61,600015
DA:75,600015
DA:77,600015
DA:80,600015
DA:82,600013
DA:85,600015
DA:86,4200105
DA:88,3600090
DA:91,600013
DA:95,3000077
DA:98,3600090
DA:100,600015
DA:104,1500615
DA:107,1500615
DA:109,700001
DA:110,700001
DA:111,700001
DA:116,800614
DA:117,3141359
DA:119,3141359
DA:122,800614
DA:124,800614
DA:125,800614
DA:126,800614
DA:131,0
LF:33
LH:31
end_of_record
TN:
SF:/home/esutton/projects/dicegame/dicegame/src/main/die.cpp
FN:25,_ZN8dicegame3DieC2Ei
FN:25,_ZN8dicegame3DieC1Ei
FN:35,_ZN8dicegame3DieD0Ev
FN:35,_ZN8dicegame3DieD2Ev
FN:35,_ZN8dicegame3DieD1Ev
FN:40,_ZNK8dicegame3Die9faceValueEv
FN:43,_ZNK8dicegame3Die13numberOfSidesEv
FN:47,_ZN8dicegame3Die15randomGeneratorEv
FN:50,_ZN8dicegame3Die4rollEv
FN:61,_ZN8dicegame3Die16rollCountHistoryEi
FNDA:9,_ZN8dicegame3DieC1Ei
FNDA:600015,_ZN8dicegame3DieC2Ei
FNDA:0,_ZN8dicegame3DieD0Ev
FNDA:9,_ZN8dicegame3DieD1Ev
FNDA:600015,_ZN8dicegame3DieD2Ev
FNDA:1840404,_ZNK8dicegame3Die9faceValueEv
FNDA:1,_ZNK8dicegame3Die13numberOfSidesEv
FNDA:800614,_ZN8dicegame3Die15randomGeneratorEv
FNDA:740024,_ZN8dicegame3Die4rollEv
FNDA:191,_ZN8dicegame3Die16rollCountHistoryEi
FNF:10
FNH:9
DA:25,600024
DA:27,600024
DA:30,600024
DA:31,600024
DA:32,600024
DA:35,600024
DA:37,600024
DA:40,1840404
DA:43,1
DA:47,800614
DA:50,740024
DA:52,740024
DA:53,740024
DA:61,191
DA:63,191
DA:65,3
DA:67,188
LF:17
LH:17
end_of_record
TN:
SF:/home/esutton/projects/dicegame/dicegame/src/test/RunAllTests.cpp
FN:8,main
FNDA:1,main
FNF:1
FNH:1
DA:8,1
DA:9,1
LF:2
LH:2
end_of_record
TN:
SF:/home/esutton/projects/dicegame/cpputest/include/CppUTest/Utest.h
FN:63,_ZN20NormalTestTerminatorC1Ev
FNDA:13,_ZN20NormalTestTerminatorC1Ev
FNF:1
FNH:1
DA:63,280015
DA:70,560030
LF:2
LH:2
end_of_record
SF:/home/esutton/projects/dicegame/dicegame/src/test/die_test.cpp
FN:19,_ZN27TEST_GROUP_CppUTestGroupDieD2Ev
FN:19,_ZN27TEST_GROUP_CppUTestGroupDieD0Ev
FN:19,_ZN27TEST_GROUP_CppUTestGroupDieC2Ev
FN:19,_ZN27TEST_GROUP_CppUTestGroupDieD1Ev
FN:24,_ZN27TEST_GROUP_CppUTestGroupDie20assertValidFaceValueEv
FN:32,_ZN51TEST_Die_InitialValueAfterCreationIsValid_TestShellD1Ev
FN:32,_ZN51TEST_Die_InitialValueAfterCreationIsValid_TestShellD0Ev
FN:32,_Z41__static_initialization_and_destruction_0ii
FN:32,_ZN46TEST_Die_InitialValueAfterCreationIsValid_Test8testBodyEv
FN:32,_ZN51TEST_Die_InitialValueAfterCreationIsValid_TestShellC1Ev
FN:32,_ZN51TEST_Die_InitialValueAfterCreationIsValid_TestShell10createTestEv
FN:32,__tcf_1
FN:32,_ZN46TEST_Die_InitialValueAfterCreationIsValid_TestD0Ev
FN:32,__tcf_0
FN:32,_ZN46TEST_Die_InitialValueAfterCreationIsValid_TestD1Ev
FN:32,_ZN46TEST_Die_InitialValueAfterCreationIsValid_TestC1Ev
FN:39,_ZN34TEST_Die_DiceHasSixSides_TestShellC1Ev
FN:39,_ZN29TEST_Die_DiceHasSixSides_Test8testBodyEv
FN:39,_ZN29TEST_Die_DiceHasSixSides_TestD1Ev
FN:39,_ZN29TEST_Die_DiceHasSixSides_TestD0Ev
FN:39,_ZN34TEST_Die_DiceHasSixSides_TestShellD0Ev
FN:39,_ZN29TEST_Die_DiceHasSixSides_TestC1Ev
FN:39,_ZN34TEST_Die_DiceHasSixSides_TestShellD1Ev
FN:39,__tcf_2
FN:39,__tcf_3
FN:39,_ZN34TEST_Die_DiceHasSixSides_TestShell10createTestEv
FN:45,_ZN55TEST_Die_RollCountHistoryNotZeroForValidSides_TestShellD1Ev
FN:45,_ZN50TEST_Die_RollCountHistoryNotZeroForValidSides_TestD1Ev
FN:45,__tcf_4
FN:45,__tcf_5
FN:45,_ZN55TEST_Die_RollCountHistoryNotZeroForValidSides_TestShellD0Ev
FN:45,_ZN55TEST_Die_RollCountHistoryNotZeroForValidSides_TestShell10createTestEv
FN:45,_ZN55TEST_Die_RollCountHistoryNotZeroForValidSides_TestShellC1Ev
FN:45,_ZN50TEST_Die_RollCountHistoryNotZeroForValidSides_Test8testBodyEv
FN:45,_ZN50TEST_Die_RollCountHistoryNotZeroForValidSides_TestD0Ev
FN:45,_ZN50TEST_Die_RollCountHistoryNotZeroForValidSides_TestC1Ev
FN:61,__tcf_6
FN:61,_ZN54TEST_Die_RollCountHistoryZeroForInvalidSides_TestShell10createTestEv
FN:61,__tcf_7
FN:61,_ZN49TEST_Die_RollCountHistoryZeroForInvalidSides_TestD0Ev
FN:61,_ZN49TEST_Die_RollCountHistoryZeroForInvalidSides_TestC1Ev
FN:61,_ZN54TEST_Die_RollCountHistoryZeroForInvalidSides_TestShellC1Ev
FN:61,_ZN49TEST_Die_RollCountHistoryZeroForInvalidSides_TestD1Ev
FN:61,_ZN54TEST_Die_RollCountHistoryZeroForInvalidSides_TestShellD1Ev
FN:61,_ZN49TEST_Die_RollCountHistoryZeroForInvalidSides_Test8testBodyEv
FN:61,_ZN54TEST_Die_RollCountHistoryZeroForInvalidSides_TestShellD0Ev
FN:78,_ZN36TEST_Die_ValuesRolledValid_TestShellC1Ev
FN:78,__tcf_9
FN:78,_ZN31TEST_Die_ValuesRolledValid_TestC1Ev
FN:78,_ZN36TEST_Die_ValuesRolledValid_TestShellD0Ev
FN:78,_ZN36TEST_Die_ValuesRolledValid_TestShell10createTestEv
FN:78,_ZN36TEST_Die_ValuesRolledValid_TestShellD1Ev
FN:78,__tcf_8
FN:78,_ZN31TEST_Die_ValuesRolledValid_Test8testBodyEv
FN:78,_ZN31TEST_Die_ValuesRolledValid_TestD1Ev
FN:78,_ZN31TEST_Die_ValuesRolledValid_TestD0Ev
FN:89,_ZN47TEST_Die_RollDistributionIsReasonable_TestShell10createTestEv
FN:89,_ZN47TEST_Die_RollDistributionIsReasonable_TestShellC1Ev
FN:89,_ZN47TEST_Die_RollDistributionIsReasonable_TestShellD1Ev
FN:89,_ZN42TEST_Die_RollDistributionIsReasonable_Test8testBodyEv
FN:89,_ZN42TEST_Die_RollDistributionIsReasonable_TestD0Ev
FN:89,_ZN42TEST_Die_RollDistributionIsReasonable_TestD1Ev
FN:89,__tcf_11
FN:89,_ZN47TEST_Die_RollDistributionIsReasonable_TestShellD0Ev
FN:89,__tcf_10
FN:89,_ZN42TEST_Die_RollDistributionIsReasonable_TestC1Ev
FN:107,_ZN39TEST_Die_InitialValueIsRandom_TestShell10createTestEv
FN:107,_ZN34TEST_Die_InitialValueIsRandom_Test8testBodyEv
FN:107,_ZN39TEST_Die_InitialValueIsRandom_TestShellD1Ev
FN:107,_ZN34TEST_Die_InitialValueIsRandom_TestC1Ev
FN:107,_ZN34TEST_Die_InitialValueIsRandom_TestD0Ev
FN:107,__tcf_12
FN:107,__tcf_13
FN:107,_ZN39TEST_Die_InitialValueIsRandom_TestShellD0Ev
FN:107,_ZN39TEST_Die_InitialValueIsRandom_TestShellC1Ev
FN:107,_ZN34TEST_Die_InitialValueIsRandom_TestD1Ev
FN:131,_GLOBAL__I_externTestGroupDie
FNDA:0,_ZN27TEST_GROUP_CppUTestGroupDieD0Ev
FNDA:0,_ZN27TEST_GROUP_CppUTestGroupDieD1Ev
FNDA:7,_ZN27TEST_GROUP_CppUTestGroupDieD2Ev
FNDA:7,_ZN27TEST_GROUP_CppUTestGroupDieC2Ev
FNDA:140001,_ZN27TEST_GROUP_CppUTestGroupDie20assertValidFaceValueEv
FNDA:1,_ZN46TEST_Die_InitialValueAfterCreationIsValid_TestD0Ev
FNDA:0,_ZN46TEST_Die_InitialValueAfterCreationIsValid_TestD1Ev
FNDA:1,_ZN51TEST_Die_InitialValueAfterCreationIsValid_TestShellC1Ev
FNDA:1,__tcf_1
FNDA:1,__tcf_0
FNDA:1,_ZN51TEST_Die_InitialValueAfterCreationIsValid_TestShellD1Ev
FNDA:1,_ZN46TEST_Die_InitialValueAfterCreationIsValid_Test8testBodyEv
FNDA:1,_ZN51TEST_Die_InitialValueAfterCreationIsValid_TestShell10createTestEv
FNDA:1,_ZN46TEST_Die_InitialValueAfterCreationIsValid_TestC1Ev
FNDA:1,_ZN29TEST_Die_DiceHasSixSides_TestD0Ev
FNDA:0,_ZN29TEST_Die_DiceHasSixSides_TestD1Ev
FNDA:1,_ZN34TEST_Die_DiceHasSixSides_TestShellC1Ev
FNDA:1,__tcf_3
FNDA:1,__tcf_2
FNDA:1,_ZN34TEST_Die_DiceHasSixSides_TestShellD1Ev
FNDA:1,_ZN29TEST_Die_DiceHasSixSides_Test8testBodyEv
FNDA:1,_ZN34TEST_Die_DiceHasSixSides_TestShell10createTestEv
FNDA:1,_ZN29TEST_Die_DiceHasSixSides_TestC1Ev
FNDA:1,_ZN50TEST_Die_RollCountHistoryNotZeroForValidSides_TestD0Ev
FNDA:0,_ZN50TEST_Die_RollCountHistoryNotZeroForValidSides_TestD1Ev
FNDA:1,_ZN55TEST_Die_RollCountHistoryNotZeroForValidSides_TestShellC1Ev
FNDA:1,__tcf_5
FNDA:1,__tcf_4
FNDA:1,_ZN55TEST_Die_RollCountHistoryNotZeroForValidSides_TestShellD1Ev
FNDA:2,_ZN50TEST_Die_RollCountHistoryNotZeroForValidSides_Test8testBodyEv
FNDA:1,_ZN55TEST_Die_RollCountHistoryNotZeroForValidSides_TestShell10createTestEv
FNDA:1,_ZN50TEST_Die_RollCountHistoryNotZeroForValidSides_TestC1Ev
FNDA:1,_ZN49TEST_Die_RollCountHistoryZeroForInvalidSides_TestD0Ev
FNDA:0,_ZN49TEST_Die_RollCountHistoryZeroForInvalidSides_TestD1Ev
FNDA:1,_ZN54TEST_Die_RollCountHistoryZeroForInvalidSides_TestShellC1Ev
FNDA:1,__tcf_7
FNDA:1,__tcf_6
FNDA:1,_ZN54TEST_Die_RollCountHistoryZeroForInvalidSides_TestShellD1Ev
FNDA:1,_ZN49TEST_Die_RollCountHistoryZeroForInvalidSides_Test8testBodyEv
FNDA:1,_ZN54TEST_Die_RollCountHistoryZeroForInvalidSides_TestShell10createTestEv
FNDA:1,_ZN49TEST_Die_RollCountHistoryZeroForInvalidSides_TestC1Ev
FNDA:1,_ZN31TEST_Die_ValuesRolledValid_TestD0Ev
FNDA:0,_ZN31TEST_Die_ValuesRolledValid_TestD1Ev
FNDA:1,_ZN36TEST_Die_ValuesRolledValid_TestShellC1Ev
FNDA:1,__tcf_9
FNDA:1,__tcf_8
FNDA:1,_ZN36TEST_Die_ValuesRolledValid_TestShellD1Ev
FNDA:1,_ZN31TEST_Die_ValuesRolledValid_Test8testBodyEv
FNDA:1,_ZN36TEST_Die_ValuesRolledValid_TestShell10createTestEv
FNDA:1,_ZN31TEST_Die_ValuesRolledValid_TestC1Ev
FNDA:1,_ZN42TEST_Die_RollDistributionIsReasonable_TestD0Ev
FNDA:0,_ZN42TEST_Die_RollDistributionIsReasonable_TestD1Ev
FNDA:1,_ZN47TEST_Die_RollDistributionIsReasonable_TestShellC1Ev
FNDA:1,__tcf_11
FNDA:1,__tcf_10
FNDA:1,_ZN47TEST_Die_RollDistributionIsReasonable_TestShellD1Ev
FNDA:1,_ZN42TEST_Die_RollDistributionIsReasonable_Test8testBodyEv
FNDA:1,_ZN47TEST_Die_RollDistributionIsReasonable_TestShell10createTestEv
FNDA:1,_ZN42TEST_Die_RollDistributionIsReasonable_TestC1Ev
FNDA:1,_ZN34TEST_Die_InitialValueIsRandom_TestD0Ev
FNDA:0,_ZN34TEST_Die_InitialValueIsRandom_TestD1Ev
FNDA:1,_ZN39TEST_Die_InitialValueIsRandom_TestShellC1Ev
FNDA:1,__tcf_13
FNDA:1,__tcf_12
FNDA:1,_ZN39TEST_Die_InitialValueIsRandom_TestShellD1Ev
FNDA:1,_ZN34TEST_Die_InitialValueIsRandom_Test8testBodyEv
FNDA:1,_ZN39TEST_Die_InitialValueIsRandom_TestShell10createTestEv
FNDA:1,_ZN34TEST_Die_InitialValueIsRandom_TestC1Ev
FNDA:0,_ZN39TEST_Die_InitialValueIsRandom_TestShellD0Ev
FNDA:0,_ZN47TEST_Die_RollDistributionIsReasonable_TestShellD0Ev
FNDA:0,_ZN36TEST_Die_ValuesRolledValid_TestShellD0Ev
FNDA:0,_ZN54TEST_Die_RollCountHistoryZeroForInvalidSides_TestShellD0Ev
FNDA:0,_ZN55TEST_Die_RollCountHistoryNotZeroForValidSides_TestShellD0Ev
FNDA:0,_ZN34TEST_Die_DiceHasSixSides_TestShellD0Ev
FNDA:0,_ZN51TEST_Die_InitialValueAfterCreationIsValid_TestShellD0Ev
FNDA:1,_Z41__static_initialization_and_destruction_0ii
FNDA:1,_GLOBAL__I_externTestGroupDie
FNF:77
FNH:61
DA:19,14
DA:24,140001
DA:26,280002
DA:27,280002
DA:28,140001
DA:32,9
DA:34,1
DA:35,1
DA:39,9
DA:41,1
DA:42,1
DA:45,9
DA:47,10001
DA:49,10000
DA:50,10000
DA:53,3
DA:55,3
DA:56,3
DA:58,0
DA:61,9
DA:63,10001
DA:65,10000
DA:66,10000
DA:69,1
DA:70,1
DA:71,1
DA:72,1
DA:73,1
DA:74,1
DA:75,1
DA:78,9
DA:80,60001
DA:82,60000
DA:83,60000
DA:85,1
DA:89,9
DA:91,1
DA:92,60001
DA:94,60000
DA:95,60000
DA:96,60000
DA:100,7
DA:102,6
DA:104,1
DA:107,9
DA:109,1
DA:110,1
DA:111,2
DA:113,2
DA:114,2
DA:117,1
DA:119,1
DA:124,1
DA:125,1801977
DA:128,0
DA:129,0
DA:130,2
DA:131,1
LF:58
LH:55
end_of_record
